
MBL.elf:     file format elf32-littleriscv
MBL.elf
architecture: riscv:rv32, flags 0x00000112:
EXEC_P, HAS_SYMS, D_PAGED
start address 0x080011d0

Program Header:
    LOAD off    0x00001000 vaddr 0x08000000 paddr 0x08000000 align 2**12
         filesz 0x00001000 memsz 0x00001000 flags rw-
    LOAD off    0x00002000 vaddr 0x08001000 paddr 0x08001000 align 2**12
         filesz 0x00003308 memsz 0x00003308 flags rwx
    LOAD off    0x00006300 vaddr 0x20000300 paddr 0x08004308 align 2**12
         filesz 0x00000068 memsz 0x00000068 flags rw-
    LOAD off    0x00000368 vaddr 0x20000368 paddr 0x20000368 align 2**12
         filesz 0x00000000 memsz 0x000032ac flags rw-
    LOAD off    0x00000900 vaddr 0x20003900 paddr 0x20003614 align 2**12
         filesz 0x00000000 memsz 0x00001000 flags rw-

Sections:
Idx Name              Size      VMA       LMA       File off  Algn  Flags
  0 .prefix           00001000  08000000  08000000  00001000  2**2  CONTENTS, ALLOC, LOAD, DATA
  1 .init             000002ca  08001000  08001000  00002000  2**2  CONTENTS, ALLOC, LOAD, READONLY, CODE
  2 .ilalign          00000002  080012ca  080012ca  000022ca  2**0  ALLOC
  3 .code_to_sram     00000000  20000300  20000300  00006368  2**0  CONTENTS
  4 .text             00003008  08001300  08001300  00002300  2**6  CONTENTS, ALLOC, LOAD, READONLY, CODE
  5 .lalign           00000000  08004308  08004308  00006368  2**0  CONTENTS
  6 .dalign           00000000  20000300  20000300  00006368  2**0  CONTENTS
  7 .data             00000068  20000300  08004308  00006300  2**2  CONTENTS, ALLOC, LOAD, DATA
  8 .bss              000032ac  20000368  20000368  00006368  2**2  ALLOC
  9 .stack            00001000  20003900  20003614  00006900  2**0  ALLOC
 10 .riscv.attributes 0000003f  00000000  00000000  00006368  2**0  CONTENTS, READONLY
 11 .comment          00000012  00000000  00000000  000063a7  2**0  CONTENTS, READONLY
 12 .debug_line       00009b12  00000000  00000000  000063b9  2**0  CONTENTS, READONLY, DEBUGGING, OCTETS
 13 .debug_info       00008516  00000000  00000000  0000fecb  2**0  CONTENTS, READONLY, DEBUGGING, OCTETS
 14 .debug_abbrev     000018f7  00000000  00000000  000183e1  2**0  CONTENTS, READONLY, DEBUGGING, OCTETS
 15 .debug_aranges    00000780  00000000  00000000  00019cd8  2**3  CONTENTS, READONLY, DEBUGGING, OCTETS
 16 .debug_str        0000470b  00000000  00000000  0001a458  2**0  CONTENTS, READONLY, DEBUGGING, OCTETS
 17 .debug_ranges     00000d18  00000000  00000000  0001eb68  2**3  CONTENTS, READONLY, DEBUGGING, OCTETS
 18 .debug_loc        00002c79  00000000  00000000  0001f880  2**0  CONTENTS, READONLY, DEBUGGING, OCTETS
 19 .debug_frame      00000f68  00000000  00000000  000224fc  2**2  CONTENTS, READONLY, DEBUGGING, OCTETS
SYMBOL TABLE:
08000000 l    d  .prefix	00000000 .prefix
08001000 l    d  .init	00000000 .init
080012ca l    d  .ilalign	00000000 .ilalign
20000300 l    d  .code_to_sram	00000000 .code_to_sram
08001300 l    d  .text	00000000 .text
08004308 l    d  .lalign	00000000 .lalign
20000300 l    d  .dalign	00000000 .dalign
20000300 l    d  .data	00000000 .data
20000368 l    d  .bss	00000000 .bss
20003900 l    d  .stack	00000000 .stack
00000000 l    d  .riscv.attributes	00000000 .riscv.attributes
00000000 l    d  .comment	00000000 .comment
00000000 l    d  .debug_line	00000000 .debug_line
00000000 l    d  .debug_info	00000000 .debug_info
00000000 l    d  .debug_abbrev	00000000 .debug_abbrev
00000000 l    d  .debug_aranges	00000000 .debug_aranges
00000000 l    d  .debug_str	00000000 .debug_str
00000000 l    d  .debug_ranges	00000000 .debug_ranges
00000000 l    d  .debug_loc	00000000 .debug_loc
00000000 l    d  .debug_frame	00000000 .debug_frame
00000000 l    df *ABS*	00000000 mbl.c
20000588 l     O .bss	00003000 alloc_buf
00000000 l    df *ABS*	00000000 start.o
08001000 l       .init	00000000 vector_base
00000000 l    df *ABS*	00000000 gd32vw55x_rcu.c
00000000 l    df *ABS*	00000000 handlers.c
08002240 l     F .text	0000004c system_default_exception_handler
20000554 l     O .bss	00000034 SystemExceptionHandlers
00000000 l    df *ABS*	00000000 mbl_image_validate.c
00000000 l    df *ABS*	00000000 findfp.c
080035e2 l     F .text	0000006a std
00000000 l    df *ABS*	00000000 nano-vfprintf.c
08003a7e l     F .text	0000002a __sfputc_r
00000000 l    df *ABS*	00000000 nano-vfprintf_i.c
00000000 l    df *ABS*	00000000 entry.o
08001be2 l       .text	00000000 _no_save_float_register
08001c30 l       .text	00000000 Undef_Handler
00000000 l    df *ABS*	00000000 gd32vw55x_eclic.c
00000000 l    df *ABS*	00000000 gd32vw55x_fmc.c
00000000 l    df *ABS*	00000000 gd32vw55x_gpio.c
00000000 l    df *ABS*	00000000 gd32vw55x_usart.c
00000000 l    df *ABS*	00000000 env_init.c
00000000 l    df *ABS*	00000000 init_rom_symbol.c
00000000 l    df *ABS*	00000000 lib_hook_mbl.c
00000000 l    df *ABS*	00000000 system_gd32vw55x.c
08002b66 l     F .text	000000c4 system_clock_160m_40m_hxtal
00000000 l    df *ABS*	00000000 atexit.c
00000000 l    df *ABS*	00000000 fini.c
00000000 l    df *ABS*	00000000 init.c
00000000 l    df *ABS*	00000000 printf.c
00000000 l    df *ABS*	00000000 puts.c
00000000 l    df *ABS*	00000000 wbuf.c
00000000 l    df *ABS*	00000000 wsetup.c
00000000 l    df *ABS*	00000000 __atexit.c
20003588 l     O .bss	0000008c _global_atexit0
00000000 l    df *ABS*	00000000 fflush.c
00000000 l    df *ABS*	00000000 fwalk.c
00000000 l    df *ABS*	00000000 makebuf.c
00000000 l    df *ABS*	00000000 nano-mallocr.c
00000000 l    df *ABS*	00000000 nano-mallocr.c
00000000 l    df *ABS*	00000000 sbrkr.c
00000000 l    df *ABS*	00000000 stdio.c
00000000 l    df *ABS*	00000000 writer.c
00000000 l    df *ABS*	00000000 closer.c
00000000 l    df *ABS*	00000000 fstatr.c
00000000 l    df *ABS*	00000000 isattyr.c
00000000 l    df *ABS*	00000000 lseekr.c
00000000 l    df *ABS*	00000000 memchr.c
00000000 l    df *ABS*	00000000 mlock.c
00000000 l    df *ABS*	00000000 readr.c
00000000 l    df *ABS*	00000000 sbrk.c
20000550 l     O .bss	00000004 heap_end.0
00000000 l    df *ABS*	00000000 impure.c
20000300 l     O .data	00000060 impure_data
00000000 l    df *ABS*	00000000 
08004308 l       .text	00000000 __fini_array_end
08004308 l       .text	00000000 __fini_array_start
08004308 l       .text	00000000 __init_array_end
08004308 l       .text	00000000 __preinit_array_end
08004308 l       .text	00000000 __init_array_start
08004308 l       .text	00000000 __preinit_array_start
0bf52806 g       *ABS*	00000000 mbedtls_cipher_reset
0bf540a4 g       *ABS*	00000000 mbedtls_ctr_drbg_init
2000042c g     O .bss	00000004 mbedtls_internal_sha256_process_fn
20000374 g     O .bss	00000004 mbedtls_ecdsa_genkey_fn
200004f8 g     O .bss	00000004 mbedtls_rsa_rsaes_oaep_encrypt_fn
0bf597fc g       *ABS*	00000000 mbedtls_md5_info
08004246 g     F .text	00000028 _isatty_r
08002092 g     F .text	0000000e usart_transmit_config
0bf5b72a g       *ABS*	00000000 mbedtls_pem_read_buffer
20000380 g     O .bss	00000004 mbedtls_ecdsa_read_signature_restartable_fn
0bf5cbbe g       *ABS*	00000000 mbedtls_pkcs12_derivation
08003124 g     F .text	000000da _puts_r
0bf540d2 g       *ABS*	00000000 mbedtls_ctr_drbg_set_prediction_resistance
20000448 g     O .bss	00000004 mbedtls_md5_process_fn
0bf54342 g       *ABS*	00000000 mbedtls_des_free
0800426e g     F .text	0000002c _lseek_r
0bf6da92 g       *ABS*	00000000 mbedtls_mpi_grow
0bf5935a g       *ABS*	00000000 mbedtls_md_starts
0bf60e78 g       *ABS*	00000000 mbedtls_internal_sha512_process
200004e0 g     O .bss	00000004 mbedtls_rsa_pkcs1_sign_fn
0bf5988c g       *ABS*	00000000 mbedtls_sha256_info
0bf4eb32 g       *ABS*	00000000 mbedtls_asn1_get_bitstring_null
0bf54354 g       *ABS*	00000000 mbedtls_des3_init
0bf5449c g       *ABS*	00000000 mbedtls_des_crypt_cbc
0bf58308 g       *ABS*	00000000 mbedtls_hardware_poll
200004ec g     O .bss	00000004 mbedtls_rsa_private_sw_fn
0bf4ef5e g       *ABS*	00000000 mbedtls_asn1_write_tag
08001cfc g     F .text	0000004e gpio_mode_set
0bf540e6 g       *ABS*	00000000 mbedtls_ctr_drbg_update
0bf54f56 g       *ABS*	00000000 mbedtls_ecdh_init
20000398 g     O .bss	00000004 mbedtls_ecdsa_write_signature_restartable_fn
080030e6 g     F .text	0000003e printf
20000b60 g       .data	00000000 __global_pointer$
0bf584a8 g       *ABS*	00000000 mbedtls_gcm_init
08002f4a g     F .text	00000028 .hidden __riscv_save_8
0bf4e86e g       *ABS*	00000000 mbedtls_asn1_get_len
200003b0 g     O .bss	00000004 mbedtls_ecp_curve_info_from_name_fn
0bf5c9a0 g       *ABS*	00000000 mbedtls_pkcs5_pbes2
0800418e g     F .text	00000034 __sseek
0800369c g     F .text	0000006a __sinit
0800320a g     F .text	000000c0 __swbuf_r
0bf5c758 g       *ABS*	00000000 mbedtls_eckey_info
0bf5480e g       *ABS*	00000000 mbedtls_dhm_read_params
0bf5831a g       *ABS*	00000000 mbedtls_strerror
20000438 g     O .bss	00000004 mbedtls_md5_finish_ret_fn
08003656 g     F .text	00000046 __sfmoreglue
0bf6dffc g       *ABS*	00000000 mbedtls_mpi_write_binary
080042b6 g     F .text	00000002 __malloc_unlock
0bf66db6 g       *ABS*	00000000 mbedtls_x509write_crt_set_key_usage
08002f96 g     F .text	0000000c .hidden __riscv_restore_3
0bf5ec38 g       *ABS*	00000000 mbedtls_rsa_deduce_primes
0bf60c8a g       *ABS*	00000000 mbedtls_sha1_ret
0bf66a8e g       *ABS*	00000000 mbedtls_x509write_crt_set_version
0bf4ec66 g       *ABS*	00000000 mbedtls_asn1_get_alg
0bf6e7b6 g       *ABS*	00000000 mbedtls_mpi_sub_int
0bf4f306 g       *ABS*	00000000 mbedtls_asn1_write_ia5_string
0bf4e97c g       *ABS*	00000000 mbedtls_asn1_get_bool
08002f82 g     F .text	00000020 .hidden __riscv_restore_10
0bf4e40a g       *ABS*	00000000 mbedtls_aes_free
08001c44 g     F .text	00000024 eclic_priority_group_set
20000360 g     O .data	00000004 p_rom_api
0bf62108 g       *ABS*	00000000 mbedtls_sha512_ret
0bf58c28 g       *ABS*	00000000 mbedtls_hkdf_extract
200004c0 g     O .bss	00000004 mbedtls_rsa_free_fn
0bf54a46 g       *ABS*	00000000 mbedtls_dhm_make_public
08002f4a g     F .text	00000028 .hidden __riscv_save_11
0bf66a9a g       *ABS*	00000000 mbedtls_x509write_crt_set_issuer_key
0bf58ed6 g       *ABS*	00000000 mbedtls_hmac_drbg_seed_buf
0bf5b722 g       *ABS*	00000000 mbedtls_pem_init
0bf6dab0 g       *ABS*	00000000 mbedtls_mpi_shrink
0bf52d84 g       *ABS*	00000000 mbedtls_cipher_auth_encrypt
0bf59dea g       *ABS*	00000000 mbedtls_oid_get_extended_key_usage
0bf60c86 g       *ABS*	00000000 mbedtls_sha1_finish
20000430 g     O .bss	00000004 mbedtls_md5_clone_fn
0bf64e1a g       *ABS*	00000000 mbedtls_x509_crt_info
0bf5e79c g       *ABS*	00000000 mbedtls_pk_write_pubkey_pem
20000484 g     O .bss	00000004 mbedtls_mpi_is_prime_fn
08001c8a g     F .text	0000000e fmc_lock
0bf5be56 g       *ABS*	00000000 mbedtls_pk_can_do
0bf60d08 g       *ABS*	00000000 mbedtls_sha256
0bf54596 g       *ABS*	00000000 mbedtls_des3_crypt_cbc
0bf5c13a g       *ABS*	00000000 mbedtls_pk_get_type
200003d8 g     O .bss	00000004 mbedtls_ecp_grp_id_list_fn
20000538 g     O .bss	00000004 mbedtls_sha256_update_fn
0800421c g     F .text	0000002a _fstat_r
0bf540ae g       *ABS*	00000000 mbedtls_ctr_drbg_free
0bf5422a g       *ABS*	00000000 mbedtls_ctr_drbg_random_with_add
0bf4f406 g       *ABS*	00000000 mbedtls_asn1_write_octet_string
2000054c g     O .bss	00000004 errno
08001e3e g     F .text	00000176 rcu_clock_freq_get
0bf63d5e g       *ABS*	00000000 mbedtls_x509_crl_parse
0bf668a8 g       *ABS*	00000000 mbedtls_x509_csr_free
00001000 g       *ABS*	00000000 __stack_size
200004a8 g     O .bss	00000004 mbedtls_rsa_check_pubkey_fn
0bf5939c g       *ABS*	00000000 mbedtls_md
0bf5ebec g       *ABS*	00000000 mbedtls_platform_setup
0bf5592a g       *ABS*	00000000 mbedtls_ecjpake_read_round_one
0bf5f314 g       *ABS*	00000000 mbedtls_sha1_starts_ret
2000039c g     O .bss	00000004 mbedtls_ecp_check_privkey_fn
0bf54f50 g       *ABS*	00000000 mbedtls_ecdh_gen_public
0bf632d0 g       *ABS*	00000000 mbedtls_x509_set_extension
0bf4e958 g       *ABS*	00000000 mbedtls_asn1_get_tag
0bf540d6 g       *ABS*	00000000 mbedtls_ctr_drbg_set_entropy_len
080020f8 g     F .text	00000022 Exception_Register_EXC
0bf6e192 g       *ABS*	00000000 mbedtls_mpi_shift_r
0bf543c4 g       *ABS*	00000000 mbedtls_des3_set2key_enc
0bf50f80 g       *ABS*	00000000 mbedtls_camellia_init
0bf60d22 g       *ABS*	00000000 mbedtls_sha512_clone
0bf66aa4 g       *ABS*	00000000 mbedtls_x509write_crt_set_issuer_name
08002f96 g     F .text	0000000c .hidden __riscv_restore_2
0bf54334 g       *ABS*	00000000 mbedtls_ctr_drbg_random
0bf5e2a6 g       *ABS*	00000000 mbedtls_pk_write_pubkey
0bf4e544 g       *ABS*	00000000 mbedtls_aes_crypt_cfb128
0bf62e60 g       *ABS*	00000000 mbedtls_x509_serial_gets
0bf6de1e g       *ABS*	00000000 mbedtls_mpi_get_bit
0bf6df66 g       *ABS*	00000000 mbedtls_mpi_read_binary
0bf65548 g       *ABS*	00000000 mbedtls_x509_crt_verify_info
20000450 g     O .bss	00000004 mbedtls_md5_starts_fn
20000410 g     O .bss	00000004 mbedtls_ecp_set_zero_fn
0bf60cc2 g       *ABS*	00000000 mbedtls_sha256_ret
0bf655fa g       *ABS*	00000000 mbedtls_x509_crt_check_key_usage
0bf4f1f2 g       *ABS*	00000000 mbedtls_asn1_write_int
0bf5f2f6 g       *ABS*	00000000 mbedtls_sha1_init
0bf5ef38 g       *ABS*	00000000 mbedtls_rsa_validate_crt
0bf6e7e0 g       *ABS*	00000000 mbedtls_mpi_mul_mpi_sw
0bf5269c g       *ABS*	00000000 mbedtls_cipher_info_from_values
0bf4e9dc g       *ABS*	00000000 mbedtls_asn1_get_int
0bf624b0 g       *ABS*	00000000 mbedtls_x509_get_serial
08001ce8 g     F .text	00000014 fmc_offset_value_config
0bf541b2 g       *ABS*	00000000 mbedtls_ctr_drbg_seed_entropy_len
0bf5589a g       *ABS*	00000000 mbedtls_ecjpake_free
0bf64050 g       *ABS*	00000000 mbedtls_x509_crl_init
0bf5f352 g       *ABS*	00000000 mbedtls_sha1_starts
0bf60b12 g       *ABS*	00000000 mbedtls_sha1_process
20000384 g     O .bss	00000004 mbedtls_ecdsa_sign_det_fn
08002088 g     F .text	0000000a usart_enable
0bf52652 g       *ABS*	00000000 mbedtls_cipher_info_from_string
0800364c g     F .text	0000000a _cleanup_r
0bf59080 g       *ABS*	00000000 mbedtls_hmac_drbg_random_with_add
0bf66a32 g       *ABS*	00000000 mbedtls_x509write_crt_init
0bf64cba g       *ABS*	00000000 mbedtls_x509_crt_parse_der_nocopy
080031fe g     F .text	0000000c puts
20000460 g     O .bss	00000004 mbedtls_mpi_div_int_fn
080020de g     F .text	0000001a Exception_Init
0bf54552 g       *ABS*	00000000 mbedtls_des3_crypt_ecb
080020ca g     F .text	00000014 usart_interrupt_enable
20000494 g     O .bss	00000004 mbedtls_mpi_mul_mpi_fn
0bf4e7a2 g       *ABS*	00000000 mbedtls_arc4_free
0bf52370 g       *ABS*	00000000 mbedtls_ccm_star_auth_decrypt
0bf5eaf8 g       *ABS*	00000000 mbedtls_platform_set_printf
08001e22 g     F .text	0000001c rcu_periph_reset_disable
08002b56 g     F .text	00000004 _fstat
200003b8 g     O .bss	00000004 mbedtls_ecp_curve_list_fn
0bf558a2 g       *ABS*	00000000 mbedtls_ecjpake_setup
080022c0 g     F .text	00000892 rom_symbol_init
0bf4e432 g       *ABS*	00000000 mbedtls_aes_setkey_dec
08002f42 g     F .text	00000030 .hidden __riscv_save_12
2000045c g     O .bss	00000004 mbedtls_md5_update_ret_fn
0bf55bc6 g       *ABS*	00000000 mbedtls_ecjpake_write_round_two
0bf63314 g       *ABS*	00000000 mbedtls_x509_write_names
200003dc g     O .bss	00000004 mbedtls_ecp_is_zero_fn
08001a00  w      .text	00000000 exc_entry
08001afc  w      .text	00000000 irq_entry
0bf672e0 g       *ABS*	00000000 mbedtls_x509write_csr_set_md_alg
0bf52342 g       *ABS*	00000000 mbedtls_ccm_encrypt_and_tag
0bf59d26 g       *ABS*	00000000 mbedtls_oid_get_attr_short_name
20000404 g     O .bss	00000004 mbedtls_ecp_point_read_binary_fn
08002f82 g     F .text	00000020 .hidden __riscv_restore_11
0bf4ed42 g       *ABS*	00000000 mbedtls_asn1_get_alg_null
0bf51518 g       *ABS*	00000000 mbedtls_camellia_setkey_dec
2000037c g     O .bss	00000004 mbedtls_ecdsa_read_signature_fn
200004bc g     O .bss	00000004 mbedtls_rsa_export_raw_fn
08001cba g     F .text	0000000e ob_lock
0bf67210 g       *ABS*	00000000 mbedtls_x509write_crt_pem
0bf628a4 g       *ABS*	00000000 mbedtls_x509_get_time
080040ee g     F .text	00000026 _sbrk_r
08002f72 g     F .text	0000000c .hidden __riscv_save_1
0bf6def2 g       *ABS*	00000000 mbedtls_mpi_bitlen
20000400 g     O .bss	00000004 mbedtls_ecp_point_init_fn
0bf598ec g       *ABS*	00000000 mbedtls_sha512_info
08002f96 g     F .text	0000000c .hidden __riscv_restore_0
08001c30  w      .text	00000000 default_intexc_handler
0bf5702a g       *ABS*	00000000 mbedtls_ecp_curve_val_init
0bf60d16 g       *ABS*	00000000 mbedtls_sha512_free
080042b8 g     F .text	0000002c _read_r
0bf5a098 g       *ABS*	00000000 mbedtls_oid_get_md_alg
08002f58 g     F .text	0000001a .hidden __riscv_save_7
0bf5be68 g       *ABS*	00000000 mbedtls_pk_verify_restartable
200004e8 g     O .bss	00000004 mbedtls_rsa_private_fn
08000000 g     O .prefix	00001000 compat_prefix
0bf540de g       *ABS*	00000000 mbedtls_ctr_drbg_update_ret
08002d34 g     F .text	0000010c boot_image_find
0bf54d20 g       *ABS*	00000000 mbedtls_dhm_free
0bf52de0 g       *ABS*	00000000 mbedtls_cipher_auth_decrypt
0bf67912 g       *ABS*	00000000 mbedtls_xtea_crypt_cbc
200003f4 g     O .bss	00000004 mbedtls_ecp_muladd_restartable_fn
20000498 g     O .bss	00000004 mbedtls_mpi_read_string_fn
0bf6da52 g       *ABS*	00000000 mbedtls_mpi_init
0bf55d0a g       *ABS*	00000000 mbedtls_ecjpake_derive_secret
0bf5d04a g       *ABS*	00000000 mbedtls_pkcs12_pbe
0bf6debc g       *ABS*	00000000 mbedtls_mpi_lsb
0bf59eaa g       *ABS*	00000000 mbedtls_oid_get_oid_by_sig_alg
0bf526d6 g       *ABS*	00000000 mbedtls_cipher_free
0bf59cca g       *ABS*	00000000 mbedtls_memory_buffer_alloc_free
0bf5dcb2 g       *ABS*	00000000 mbedtls_pk_parse_key
08002b5a g     F .text	00000004 _isatty
0bf5a212 g       *ABS*	00000000 mbedtls_oid_get_numeric_string
200003d0 g     O .bss	00000004 mbedtls_ecp_group_free_fn
0bf58f3c g       *ABS*	00000000 mbedtls_hmac_drbg_reseed
08004304 g     O .text	00000004 _global_impure_ptr
08002f8c g     F .text	00000016 .hidden __riscv_restore_5
08002fe0 g     F .text	0000005e __libc_init_array
0bf5bd7a g       *ABS*	00000000 mbedtls_pk_free
200003bc g     O .bss	00000004 mbedtls_ecp_gen_key_fn
0bf5c126 g       *ABS*	00000000 mbedtls_pk_get_name
0bf66a58 g       *ABS*	00000000 mbedtls_x509write_crt_free
0bf6e694 g       *ABS*	00000000 mbedtls_mpi_add_mpi
0bf559c6 g       *ABS*	00000000 mbedtls_ecjpake_write_round_one
0bf62168 g       *ABS*	00000000 mbedtls_sha512
0bf65c02 g       *ABS*	00000000 mbedtls_x509_crt_verify_with_profile
080042e4 g     F .text	00000020 _sbrk
0bf4f194 g       *ABS*	00000000 mbedtls_asn1_write_bool
0bf59078 g       *ABS*	00000000 mbedtls_hmac_drbg_set_entropy_len
200004c8 g     O .bss	00000004 mbedtls_rsa_get_len_fn
08001d4a g     F .text	00000048 gpio_output_options_set
0bf59074 g       *ABS*	00000000 mbedtls_hmac_drbg_set_prediction_resistance
080022bc g     F .text	00000002 _init
0bf59f48 g       *ABS*	00000000 mbedtls_oid_get_oid_by_pk_alg
0bf515ea g       *ABS*	00000000 mbedtls_camellia_crypt_ecb
0bf5c062 g       *ABS*	00000000 mbedtls_pk_decrypt
0bf66cba g       *ABS*	00000000 mbedtls_x509write_crt_set_authority_key_identifier
0bf54440 g       *ABS*	00000000 mbedtls_des3_set3key_dec
0bf584b2 g       *ABS*	00000000 mbedtls_gcm_setkey
0bf64cde g       *ABS*	00000000 mbedtls_x509_crt_parse
0bf4efb2 g       *ABS*	00000000 mbedtls_asn1_write_mpi
0bf5583e g       *ABS*	00000000 mbedtls_ecjpake_init
0bf6e714 g       *ABS*	00000000 mbedtls_mpi_sub_mpi
08002f8c g     F .text	00000016 .hidden __riscv_restore_6
2000050c g     O .bss	00000004 mbedtls_rsa_rsassa_pss_sign_fn
0bf59654 g       *ABS*	00000000 mbedtls_md_get_name
0bf64ccc g       *ABS*	00000000 mbedtls_x509_crt_parse_der
0bf5eb86 g       *ABS*	00000000 mbedtls_time
08002fac g     F .text	00000034 __libc_fini_array
0bf672fa g       *ABS*	00000000 mbedtls_x509write_csr_set_key_usage
0bf54b22 g       *ABS*	00000000 mbedtls_dhm_calc_secret
0bf54224 g       *ABS*	00000000 mbedtls_ctr_drbg_seed
0bf550ea g       *ABS*	00000000 mbedtls_ecdh_get_params
0bf4eab2 g       *ABS*	00000000 mbedtls_asn1_get_bitstring
200003a8 g     O .bss	00000004 mbedtls_ecp_copy_fn
0bf4f47c g       *ABS*	00000000 mbedtls_asn1_store_named_data
0bf6309a g       *ABS*	00000000 mbedtls_x509_time_is_past
0bf5a0fa g       *ABS*	00000000 mbedtls_oid_get_oid_by_md
0bf586a4 g       *ABS*	00000000 mbedtls_gcm_starts
0bf59d88 g       *ABS*	00000000 mbedtls_oid_get_x509_ext_type
200003c8 g     O .bss	00000004 mbedtls_ecp_gen_privkey_fn
200003a4 g     O .bss	00000004 mbedtls_ecp_check_pubkey_fn
0bf672e4 g       *ABS*	00000000 mbedtls_x509write_csr_set_key
20000514 g     O .bss	00000004 mbedtls_rsa_rsassa_pss_verify_fn
0bf522a4 g       *ABS*	00000000 mbedtls_ccm_setkey
0bf5bb86 g       *ABS*	00000000 mbedtls_pem_free
0bf4f2fe g       *ABS*	00000000 mbedtls_asn1_write_printable_string
20000388 g     O .bss	00000004 mbedtls_ecdsa_sign_fn
0bf540f8 g       *ABS*	00000000 mbedtls_ctr_drbg_reseed
0bf6ddda g       *ABS*	00000000 mbedtls_mpi_lset
0bf5bbb2 g       *ABS*	00000000 mbedtls_pem_write_buffer
0bf4f3c8 g       *ABS*	00000000 mbedtls_asn1_write_named_bitstring
0bf52c74 g       *ABS*	00000000 mbedtls_cipher_write_tag
0bf62f70 g       *ABS*	00000000 mbedtls_x509_sig_alg_gets
200004f4 g     O .bss	00000004 mbedtls_rsa_rsaes_oaep_decrypt_fn
20000378 g     O .bss	00000004 mbedtls_ecdsa_init_fn
0800228c g     F .text	0000002e _premain_init
200004fc g     O .bss	00000004 mbedtls_rsa_rsaes_pkcs1_v15_decrypt_fn
08002d04 g     F .text	00000028 flash_offset_mapping
0bf5a140 g       *ABS*	00000000 mbedtls_oid_get_md_hmac
200004c4 g     O .bss	00000004 mbedtls_rsa_gen_key_fn
08002f4a g     F .text	00000028 .hidden __riscv_save_9
080020a0 g     F .text	0000000e usart_receive_config
200003ac g     O .bss	00000004 mbedtls_ecp_curve_info_from_grp_id_fn
0bf5bede g       *ABS*	00000000 mbedtls_pk_verify_ext
0bf5229a g       *ABS*	00000000 mbedtls_ccm_init
0bf4f278 g       *ABS*	00000000 mbedtls_asn1_write_tagged_string
0bf5f048 g       *ABS*	00000000 mbedtls_rsa_validate_params
08001648 g     O .text	00000020 __sf_fake_stderr
0bf5ec00 g       *ABS*	00000000 mbedtls_platform_teardown
08002f58 g     F .text	0000001a .hidden __riscv_save_4
0bf52300 g       *ABS*	00000000 mbedtls_ccm_free
0bf5275e g       *ABS*	00000000 mbedtls_cipher_setkey
0bf638c2 g       *ABS*	00000000 mbedtls_x509_crl_parse_der
0bf61dea g       *ABS*	00000000 mbedtls_sha512_process
0bf5c0ec g       *ABS*	00000000 mbedtls_pk_get_bitlen
200003fc g     O .bss	00000004 mbedtls_ecp_point_free_fn
20003618 g       .bss	00000000 end
2000048c g     O .bss	00000004 mbedtls_mpi_mod_mpi_fn
2000038c g     O .bss	00000004 mbedtls_ecdsa_verify_fn
0bf672e8 g       *ABS*	00000000 mbedtls_x509write_csr_set_subject_name
0bf5c7b8 g       *ABS*	00000000 mbedtls_ed25519_info
0bf6dc50 g       *ABS*	00000000 mbedtls_mpi_safe_cond_assign
20000394 g     O .bss	00000004 mbedtls_ecdsa_write_signature_fn
0bf4e41c g       *ABS*	00000000 mbedtls_aes_setkey_enc
0bf5284c g       *ABS*	00000000 mbedtls_cipher_update
0bf5928c g       *ABS*	00000000 mbedtls_md_init
0bf54876 g       *ABS*	00000000 mbedtls_dhm_make_params
0bf5a1a2 g       *ABS*	00000000 mbedtls_oid_get_pkcs12_pbe_alg
200003e4 g     O .bss	00000004 mbedtls_ecp_keypair_init_fn
2000046c g     O .bss	00000004 mbedtls_mpi_exp_mod_sw_fn
0bf5ec30 g       *ABS*	00000000 mbedtls_platform_zeroize
08003aa8 g     F .text	00000042 __sfputs_r
0bf6e230 g       *ABS*	00000000 mbedtls_mpi_cmp_abs
0bf5bed8 g       *ABS*	00000000 mbedtls_pk_verify
0bf55910 g       *ABS*	00000000 mbedtls_ecjpake_check
20000510 g     O .bss	00000004 mbedtls_rsa_rsassa_pss_verify_ext_fn
0800429a g     F .text	0000001a memchr
0800390a g     F .text	000000a2 _free_r
2000043c g     O .bss	00000004 mbedtls_md5_fn
20000540 g     O .bss	00000004 _global_atexit
0bf5818a g       *ABS*	00000000 mbedtls_entropy_free
08002f72 g     F .text	0000000c .hidden __riscv_save_3
0bf4f30e g       *ABS*	00000000 mbedtls_asn1_write_bitstring
0bf61df8 g       *ABS*	00000000 mbedtls_sha512_update
20004900 g       .stack	00000000 _sp
0800211a g     F .text	0000004a core_exception_handler
0bf6d9e2 g       *ABS*	00000000 mbedtls_mpi_dump
0bf526fe g       *ABS*	00000000 mbedtls_cipher_setup
20000454 g     O .bss	00000004 mbedtls_md5_starts_ret_fn
0bf6e4d6 g       *ABS*	00000000 mbedtls_mpi_cmp_int
080011d0 g     F .init	00000000 _start
08001df2 g     F .text	00000018 rcu_periph_clock_enable
0bf6568c g       *ABS*	00000000 mbedtls_x509_crt_is_revoked
0bf60d2a g       *ABS*	00000000 mbedtls_sha512_starts_ret
20000524 g     O .bss	00000004 mbedtls_sha256_finish_ret_fn
0bf5c874 g       *ABS*	00000000 mbedtls_pkcs5_pbkdf2_hmac
08002b5e g     F .text	00000004 _lseek
0bf65c1c g       *ABS*	00000000 mbedtls_x509_crt_free
0bf58124 g       *ABS*	00000000 mbedtls_entropy_init
0bf59c46 g       *ABS*	00000000 mbedtls_memory_buffer_alloc_init
0bf630fc g       *ABS*	00000000 mbedtls_x509_string_to_names
0bf4e798 g       *ABS*	00000000 mbedtls_arc4_init
080033d0 g     F .text	00000074 __register_exitproc
20000468 g     O .bss	00000004 mbedtls_mpi_exp_mod_fn
2000047c g     O .bss	00000004 mbedtls_mpi_inv_mod_fn
0bf4f2f6 g       *ABS*	00000000 mbedtls_asn1_write_utf8_string
0bf5a036 g       *ABS*	00000000 mbedtls_oid_get_cipher_alg
0bf55092 g       *ABS*	00000000 mbedtls_ecdh_read_params
0bf6689e g       *ABS*	00000000 mbedtls_x509_csr_init
0bf6db62 g       *ABS*	00000000 mbedtls_mpi_copy
0bf66ab0 g       *ABS*	00000000 mbedtls_x509write_crt_set_validity
0bf5479c g       *ABS*	00000000 mbedtls_dhm_free.part.0
08001c68 g     F .text	00000022 fmc_unlock
200004e4 g     O .bss	00000004 mbedtls_rsa_pkcs1_verify_fn
0bf54426 g       *ABS*	00000000 mbedtls_des3_set3key_enc
2000053c g     O .bss	00000004 mbedtls_sha256_update_ret_fn
0bf66e66 g       *ABS*	00000000 mbedtls_x509write_crt_der
080012cc g       *ABS*	00000000 _sicode
0bf54392 g       *ABS*	00000000 mbedtls_des_setkey_enc
0bf60b20 g       *ABS*	00000000 mbedtls_sha1_update
0bf5e81a g       *ABS*	00000000 mbedtls_pk_write_key_pem
0bf6dc1c g       *ABS*	00000000 mbedtls_mpi_swap
200003d4 g     O .bss	00000004 mbedtls_ecp_group_init_fn
2000036c g     O .bss	00000004 mbedtls_ecdsa_free_fn
0bf65f60 g       *ABS*	00000000 mbedtls_x509_crt_profile_suiteb
20000470 g     O .bss	00000004 mbedtls_mpi_fill_random_fn
0bf5f38e g       *ABS*	00000000 mbedtls_internal_sha1_process
0bf551d4 g       *ABS*	00000000 mbedtls_ecdh_read_public
0bf54a1a g       *ABS*	00000000 mbedtls_dhm_read_public
08002e40 g     F .text	00000102 image_x_validate
0bf4ee36 g       *ABS*	00000000 mbedtls_asn1_write_len
080041f4 g     F .text	00000028 _close_r
20000440 g     O .bss	00000004 mbedtls_md5_free_fn
20000518 g     O .bss	00000004 mbedtls_rsa_set_padding_fn
0bf594bc g       *ABS*	00000000 mbedtls_md_hmac_update
0bf6778c g       *ABS*	00000000 mbedtls_xtea_setup
0bf6e0b6 g       *ABS*	00000000 mbedtls_mpi_shift_l
0bf6e400 g       *ABS*	00000000 mbedtls_mpi_cmp_mpi
0bf58958 g       *ABS*	00000000 mbedtls_gcm_finish
0bf582fc g       *ABS*	00000000 mbedtls_platform_set_hardware_poll
20000434 g     O .bss	00000004 mbedtls_md5_finish_fn
0bf5706a g       *ABS*	00000000 mbedtls_ecp_group_load
0bf4f098 g       *ABS*	00000000 mbedtls_asn1_write_oid
0bf540da g       *ABS*	00000000 mbedtls_ctr_drbg_set_reseed_interval
0bf54d28 g       *ABS*	00000000 mbedtls_dhm_parse_dhm
20000480 g     O .bss	00000004 mbedtls_mpi_is_prime_ext_fn
080032ca g     F .text	00000106 __swsetup_r
0bf59e76 g       *ABS*	00000000 mbedtls_oid_get_sig_alg
0bf6e500 g       *ABS*	00000000 mbedtls_mpi_add_abs
0bf5500e g       *ABS*	00000000 mbedtls_ecdh_make_params
08003706 g     F .text	0000009e __sfp
0bf6777a g       *ABS*	00000000 mbedtls_xtea_init
08002012 g     F .text	00000076 usart_baudrate_set
0bf581f2 g       *ABS*	00000000 mbedtls_entropy_gather
0bf54f52 g       *ABS*	00000000 mbedtls_ecdh_compute_shared
0bf5231e g       *ABS*	00000000 mbedtls_ccm_star_encrypt_and_tag
0bf59628 g       *ABS*	00000000 mbedtls_md_process
0bf63064 g       *ABS*	00000000 mbedtls_x509_key_size_helper
08002f4a g     F .text	00000028 .hidden __riscv_save_10
08004114 g     F .text	0000002e __sread
0bf592fa g       *ABS*	00000000 mbedtls_md_setup
0bf634b0 g       *ABS*	00000000 mbedtls_x509_write_extensions
0bf672bc g       *ABS*	00000000 mbedtls_x509write_csr_free
0bf65be2 g       *ABS*	00000000 mbedtls_x509_crt_verify
20000390 g     O .bss	00000004 mbedtls_ecdsa_write_signature_det_fn
0bf5ea58 g       *ABS*	00000000 mbedtls_platform_set_calloc_free
200004ac g     O .bss	00000004 mbedtls_rsa_complete_fn
080042b4 g     F .text	00000002 __malloc_lock
0bf5db6a g       *ABS*	00000000 mbedtls_pk_parse_subpubkey
0bf66e1e g       *ABS*	00000000 mbedtls_x509write_crt_set_ns_cert_type
08002f8c g     F .text	00000016 .hidden __riscv_restore_4
0bf52c9c g       *ABS*	00000000 mbedtls_cipher_check_tag
0bf59178 g       *ABS*	00000000 mbedtls_hmac_drbg_free
08002f82 g     F .text	00000020 .hidden __riscv_restore_8
0800357e g     F .text	00000064 _fflush_r
08002f58 g     F .text	0000001a .hidden __riscv_save_6
0bf52d12 g       *ABS*	00000000 mbedtls_cipher_crypt
0bf5c086 g       *ABS*	00000000 mbedtls_pk_encrypt
0bf54fa6 g       *ABS*	00000000 mbedtls_ecdh_setup
0bf656d6 g       *ABS*	00000000 mbedtls_x509_crt_verify_restartable
08001668 g     O .text	00000020 __sf_fake_stdin
0bf59386 g       *ABS*	00000000 mbedtls_md_finish
20000368 g       .bss	00000000 __bss_start
0bf5e9ee g       *ABS*	00000000 mbedtls_calloc
0bf58ed2 g       *ABS*	00000000 mbedtls_hmac_drbg_update
0800303e g     F .text	000000a8 memset
0bf59196 g       *ABS*	00000000 mbedtls_md_list
08001cc8 g     F .text	00000020 fmc_offset_region_config
080020ae g     F .text	00000008 usart_data_transmit
0bf5c052 g       *ABS*	00000000 mbedtls_pk_sign
08002f82 g     F .text	00000020 .hidden __riscv_restore_9
08002f8c g     F .text	00000016 .hidden __riscv_restore_7
0800173c g     F .text	000002a2 main
0bf518e8 g       *ABS*	00000000 mbedtls_camellia_crypt_cfb128
0bf5ebcc g       *ABS*	00000000 mbedtls_platform_set_time
0bf5391c g       *ABS*	00000000 mbedtls_cipher_definitions
0bf55160 g       *ABS*	00000000 mbedtls_ecdh_make_public
0bf61e00 g       *ABS*	00000000 mbedtls_sha512_finish_ret
0bf5964a g       *ABS*	00000000 mbedtls_md_get_type
080041c2 g     F .text	00000006 __sclose
0bf672ee g       *ABS*	00000000 mbedtls_x509write_csr_set_extension
200004b0 g     O .bss	00000004 mbedtls_rsa_copy_fn
0bf66a96 g       *ABS*	00000000 mbedtls_x509write_crt_set_subject_key
0bf59e4c g       *ABS*	00000000 mbedtls_oid_get_sig_alg_desc
0bf58aac g       *ABS*	00000000 mbedtls_gcm_crypt_and_tag
0bf50f8a g       *ABS*	00000000 mbedtls_camellia_free
080039ac g     F .text	000000d2 _malloc_r
200004d4 g     O .bss	00000004 mbedtls_rsa_init_fn
20000530 g     O .bss	00000004 mbedtls_sha256_starts_fn
0bf58b12 g       *ABS*	00000000 mbedtls_gcm_auth_decrypt
0bf62c4a g       *ABS*	00000000 mbedtls_x509_get_ext
0bf594d6 g       *ABS*	00000000 mbedtls_md_hmac_finish
0bf4e400 g       *ABS*	00000000 mbedtls_aes_init
0bf526cc g       *ABS*	00000000 mbedtls_cipher_init
0bf5bd9e g       *ABS*	00000000 mbedtls_pk_info_from_type
0bf62778 g       *ABS*	00000000 mbedtls_x509_get_name
0bf672b4 g       *ABS*	00000000 mbedtls_x509write_csr_init
20000500 g     O .bss	00000004 mbedtls_rsa_rsaes_pkcs1_v15_encrypt_fn
0bf5c788 g       *ABS*	00000000 mbedtls_eckeydh_info
0bf52628 g       *ABS*	00000000 mbedtls_cipher_info_from_type
0bf5c7e8 g       *ABS*	00000000 mbedtls_rsa_alt_info
0bf525e2 g       *ABS*	00000000 mbedtls_cipher_list
200003f0 g     O .bss	00000004 mbedtls_ecp_muladd_fn
08002c2a g     F .text	0000006e SystemInit
200003ec g     O .bss	00000004 mbedtls_ecp_mul_restartable_fn
0bf676c4 g       *ABS*	00000000 mbedtls_x509write_csr_pem
0bf61dee g       *ABS*	00000000 mbedtls_sha512_update_ret
0bf59354 g       *ABS*	00000000 mbedtls_md_init_ctx
0bf677d8 g       *ABS*	00000000 mbedtls_xtea_crypt_ecb
080022be g     F .text	00000002 _fini
0bf591a0 g       *ABS*	00000000 mbedtls_md_info_from_string
080030e6 g     F .text	0000003e iprintf
0bf6254e g       *ABS*	00000000 mbedtls_x509_get_rsassa_pss_params
0bf60b16 g       *ABS*	00000000 mbedtls_sha1_update_ret
0bf63e16 g       *ABS*	00000000 mbedtls_x509_crl_info
0bf62104 g       *ABS*	00000000 mbedtls_sha512_finish
0bf4edec g       *ABS*	00000000 mbedtls_asn1_find_named_data
0bf6309e g       *ABS*	00000000 mbedtls_x509_time_is_future
0bf5eab2 g       *ABS*	00000000 mbedtls_platform_set_snprintf
20000520 g     O .bss	00000004 mbedtls_sha256_finish_fn
08001fb4 g     F .text	0000005e usart_deinit
0bf4e71e g       *ABS*	00000000 mbedtls_aes_crypt_ofb
0bf6e78c g       *ABS*	00000000 mbedtls_mpi_add_int
08002fa2 g     F .text	0000000a atexit
0bf4edb0 g       *ABS*	00000000 mbedtls_asn1_free_named_data_list
080041c8 g     F .text	0000002c _write_r
0bf66a92 g       *ABS*	00000000 mbedtls_x509write_crt_set_md_alg
0bf517f8 g       *ABS*	00000000 mbedtls_camellia_crypt_cbc
2000044c g     O .bss	00000004 mbedtls_md5_ret_fn
20000474 g     O .bss	00000004 mbedtls_mpi_gcd_fn
0bf5c0fe g       *ABS*	00000000 mbedtls_pk_debug
20000420 g     O .bss	00000004 mbedtls_ecp_tls_write_group_fn
0bf5985c g       *ABS*	00000000 mbedtls_sha224_info
0bf60b28 g       *ABS*	00000000 mbedtls_sha1_finish_ret
0bf5ea2a g       *ABS*	00000000 mbedtls_free
0bf5ec12 g       *ABS*	00000000 mbedtls_hwpka_flag_set
0bf523de g       *ABS*	00000000 mbedtls_ccm_auth_decrypt
20000528 g     O .bss	00000004 mbedtls_sha256_free_fn
0bf581e8 g       *ABS*	00000000 mbedtls_entropy_update_manual
08003d78 g     F .text	0000010a _printf_common
20000364 g     O .data	00000004 _impure_ptr
08001e0a g     F .text	00000018 rcu_periph_reset_enable
08003444 g     F .text	0000013a __sflush_r
20000414 g     O .bss	00000004 mbedtls_ecp_tls_read_group_fn
0bf54fbe g       *ABS*	00000000 mbedtls_ecdh_free
08002cf0 g     F .text	00000014 log_uart_idle_wait
0bf549be g       *ABS*	00000000 mbedtls_dhm_set_group
200003e0 g     O .bss	00000004 mbedtls_ecp_keypair_free_fn
0bf5199e g       *ABS*	00000000 mbedtls_camellia_crypt_ctr
0bf59ee6 g       *ABS*	00000000 mbedtls_oid_get_pk_alg
0bf62cbc g       *ABS*	00000000 mbedtls_x509_dn_gets
200004d8 g     O .bss	00000004 mbedtls_rsa_pkcs1_decrypt_fn
20000300 g       .dalign	00000000 _data
0bf58da6 g       *ABS*	00000000 mbedtls_hkdf
0bf6251e g       *ABS*	00000000 mbedtls_x509_get_alg_null
0bf5e48e g       *ABS*	00000000 mbedtls_pk_write_key_der
20000444 g     O .bss	00000004 mbedtls_md5_init_fn
0bf66b1e g       *ABS*	00000000 mbedtls_x509write_crt_set_basic_constraints
200004a0 g     O .bss	00000004 mbedtls_rsa_check_privkey_fn
0bf58fda g       *ABS*	00000000 mbedtls_hmac_drbg_seed
0bf5f30c g       *ABS*	00000000 mbedtls_sha1_clone
08002f72 g     F .text	0000000c .hidden __riscv_save_2
0bf6df54 g       *ABS*	00000000 mbedtls_mpi_size
0bf5435c g       *ABS*	00000000 mbedtls_des3_free
0bf66b16 g       *ABS*	00000000 mbedtls_x509write_crt_set_extension
0bf5281a g       *ABS*	00000000 mbedtls_cipher_update_ad
0bf6676a g       *ABS*	00000000 mbedtls_x509_csr_info
0bf4e434 g       *ABS*	00000000 mbedtls_aes_crypt_ecb
08002164 g     F .text	00000084 Exception_DumpFrame
0bf5f300 g       *ABS*	00000000 mbedtls_sha1_free
0bf4e688 g       *ABS*	00000000 mbedtls_aes_crypt_ctr
0bf4ea56 g       *ABS*	00000000 mbedtls_asn1_get_mpi
0bf6de3e g       *ABS*	00000000 mbedtls_mpi_set_bit
0bf4f67c g       *ABS*	00000000 mbedtls_base64_decode
0bf5982c g       *ABS*	00000000 mbedtls_sha1_info
2000051c g     O .bss	00000004 mbedtls_sha256_clone_fn
0bf4ef7c g       *ABS*	00000000 mbedtls_asn1_write_raw_buffer
0bf5ee74 g       *ABS*	00000000 mbedtls_rsa_deduce_private_exponent
0bf55afc g       *ABS*	00000000 mbedtls_ecjpake_read_round_two
0bf4e7ae g       *ABS*	00000000 mbedtls_arc4_setup
0800380e g     F .text	0000005c __swhatbuf_r
0bf6405a g       *ABS*	00000000 mbedtls_x509_crl_free
200004cc g     O .bss	00000004 mbedtls_rsa_import_fn
200004b8 g     O .bss	00000004 mbedtls_rsa_export_fn
0bf65c12 g       *ABS*	00000000 mbedtls_x509_crt_init
0bf58e08 g       *ABS*	00000000 mbedtls_hmac_drbg_update_ret
0bf60cbe g       *ABS*	00000000 mbedtls_sha1
08002f58 g     F .text	0000001a .hidden __riscv_save_5
0bf4eb92 g       *ABS*	00000000 mbedtls_asn1_get_sequence_of
0bf557e6 g       *ABS*	00000000 mbedtls_ecjpake_free.part.2
20000370 g     O .bss	00000004 mbedtls_ecdsa_from_keypair_fn
08002c98 g     F .text	00000058 _write
0bf5433a g       *ABS*	00000000 mbedtls_des_init
0bf5cfba g       *ABS*	00000000 mbedtls_pkcs12_pbe_sha1_rc4_128
20000368 g       .bss	00000000 _edata
200003a0 g     O .bss	00000004 mbedtls_ecp_check_pub_priv_fn
20000464 g     O .bss	00000004 mbedtls_mpi_div_mpi_fn
0bf6669e g       *ABS*	00000000 mbedtls_x509_csr_parse
080022ba g     F .text	00000002 _postmain_fini
20003618 g       .bss	00000000 _end
0bf58822 g       *ABS*	00000000 mbedtls_gcm_update
20000458 g     O .bss	00000004 mbedtls_md5_update_fn
0bf59f8e g       *ABS*	00000000 mbedtls_oid_get_ec_grp
08001c98 g     F .text	00000022 ob_unlock
0bf592ce g       *ABS*	00000000 mbedtls_md_clone
0bf58b82 g       *ABS*	00000000 mbedtls_gcm_free
20000424 g     O .bss	00000004 mbedtls_ecp_tls_write_point_fn
08001c32 g     F .text	00000008 eclic_global_interrupt_enable
2000049c g     O .bss	00000004 mbedtls_mpi_write_string_fn
200004a4 g     O .bss	00000004 mbedtls_rsa_check_pub_priv_fn
200004b4 g     O .bss	00000004 mbedtls_rsa_export_crt_fn
08004308 g       .lalign	00000000 _data_lma
080021e8 g     F .text	00000058 nmi_handler
0bf5954e g       *ABS*	00000000 mbedtls_md_hmac_reset
200003b4 g     O .bss	00000004 mbedtls_ecp_curve_info_from_tls_id_fn
0bf60d0c g       *ABS*	00000000 mbedtls_sha512_init
0bf62536 g       *ABS*	00000000 mbedtls_x509_get_alg
08004142 g     F .text	0000004c __swrite
0bf60e74 g       *ABS*	00000000 mbedtls_sha512_starts
0bf6560a g       *ABS*	00000000 mbedtls_x509_crt_check_extended_key_usage
200004dc g     O .bss	00000004 mbedtls_rsa_pkcs1_encrypt_fn
0bf543f6 g       *ABS*	00000000 mbedtls_des3_set2key_dec
0bf5f22e g       *ABS*	00000000 mbedtls_rsa_deduce_crt
20000408 g     O .bss	00000004 mbedtls_ecp_point_read_string_fn
08003aea g     F .text	0000028e _vfiprintf_r
0bf59370 g       *ABS*	00000000 mbedtls_md_update
080037a4 g     F .text	0000006a _fwalk_reent
0bf5963e g       *ABS*	00000000 mbedtls_md_get_size
20000300 g       .code_to_sram	00000000 _scode
20000368 g     O .bss	00000004 ecp_supported_curves
0bf66a9e g       *ABS*	00000000 mbedtls_x509write_crt_set_subject_name
0bf62bac g       *ABS*	00000000 mbedtls_x509_get_sig_alg
0bf50f96 g       *ABS*	00000000 mbedtls_camellia_setkey_enc
08001688 g     O .text	00000020 __sf_fake_stdout
0bf6da60 g       *ABS*	00000000 mbedtls_mpi_free
200004f0 g     O .bss	00000004 mbedtls_rsa_public_fn
0bf65f40 g       *ABS*	00000000 mbedtls_x509_crt_profile_default
0bf59598 g       *ABS*	00000000 mbedtls_md_hmac
0bf4f064 g       *ABS*	00000000 mbedtls_asn1_write_null
08002f7e g     F .text	00000024 .hidden __riscv_restore_12
20000428 g     O .bss	00000004 mbedtls_internal_md5_process_fn
0bf65f50 g       *ABS*	00000000 mbedtls_x509_crt_profile_next
20000534 g     O .bss	00000004 mbedtls_sha256_starts_ret_fn
08002b62 g     F .text	00000004 _read
0bf5df30 g       *ABS*	00000000 mbedtls_pk_parse_public_key
0bf59170 g       *ABS*	00000000 mbedtls_hmac_drbg_random
0bf67782 g       *ABS*	00000000 mbedtls_xtea_free
0bf54458 g       *ABS*	00000000 mbedtls_des_crypt_ecb
0bf5520c g       *ABS*	00000000 mbedtls_ecdh_calc_secret
0bf5bdf2 g       *ABS*	00000000 mbedtls_pk_setup_rsa_alt
0bf664b6 g       *ABS*	00000000 mbedtls_x509_csr_parse_der
08002f72 g     F .text	0000000c .hidden __riscv_save_0
0bf4e478 g       *ABS*	00000000 mbedtls_aes_crypt_cbc
200003cc g     O .bss	00000004 mbedtls_ecp_group_copy_fn
0bf6738a g       *ABS*	00000000 mbedtls_x509write_csr_der
0bf58dfe g       *ABS*	00000000 mbedtls_hmac_drbg_init
200003c0 g     O .bss	00000004 mbedtls_ecp_gen_keypair_base_fn
0bf5907c g       *ABS*	00000000 mbedtls_hmac_drbg_set_reseed_interval
200004d0 g     O .bss	00000004 mbedtls_rsa_import_raw_fn
0bf5e394 g       *ABS*	00000000 mbedtls_pk_write_pubkey_der
0bf6dd02 g       *ABS*	00000000 mbedtls_mpi_safe_cond_swap
0bf59ff0 g       *ABS*	00000000 mbedtls_oid_get_oid_by_ec_grp
0800386a g     F .text	000000a0 __smakebuf_r
080020b6 g     F .text	00000014 usart_flag_get
08003e82 g     F .text	0000026c _printf_i
08001d92 g     F .text	00000060 gpio_af_set
0bf52ab6 g       *ABS*	00000000 mbedtls_cipher_finish
200003e8 g     O .bss	00000004 mbedtls_ecp_mul_fn
0bf593b4 g       *ABS*	00000000 mbedtls_md_hmac_starts
20000300 g       .code_to_sram	00000000 _ecode
08001c3a g     F .text	0000000a eclic_level_threshold_set
20000548 g     O .bss	00000004 __malloc_sbrk_start
0bf52bba g       *ABS*	00000000 mbedtls_cipher_set_padding_mode
0bf5bfce g       *ABS*	00000000 mbedtls_pk_sign_restartable
20000418 g     O .bss	00000004 mbedtls_ecp_tls_read_group_id_fn
0bf5bdba g       *ABS*	00000000 mbedtls_pk_setup
08002d2c g     F .text	00000008 reloc_iv
200003c4 g     O .bss	00000004 mbedtls_ecp_gen_keypair_fn
0bf6c03c g       *ABS*	00000000 ED25519_verify
20000544 g     O .bss	00000004 __malloc_free_list
20000508 g     O .bss	00000004 mbedtls_rsa_rsassa_pkcs1_v15_verify_fn
08002f96 g     F .text	0000000c .hidden __riscv_restore_1
20000490 g     O .bss	00000004 mbedtls_mpi_mul_int_fn
0bf63402 g       *ABS*	00000000 mbedtls_x509_write_sig
0bf5bd70 g       *ABS*	00000000 mbedtls_pk_init
0bf62b4e g       *ABS*	00000000 mbedtls_x509_get_sig
0bf6e5fa g       *ABS*	00000000 mbedtls_mpi_sub_abs
0bf4e810 g       *ABS*	00000000 mbedtls_arc4_crypt
08003aea g     F .text	0000028e _vfprintf_r
0bf581f6 g       *ABS*	00000000 mbedtls_entropy_func
0bf59270 g       *ABS*	00000000 mbedtls_md_info_from_type
0bf5c728 g       *ABS*	00000000 mbedtls_ecdsa_info
0bf4f54c g       *ABS*	00000000 mbedtls_base64_encode
0bf581b4 g       *ABS*	00000000 mbedtls_entropy_add_source
0bf59294 g       *ABS*	00000000 mbedtls_md_free
2000040c g     O .bss	00000004 mbedtls_ecp_point_write_binary_fn
20000478 g     O .bss	00000004 mbedtls_mpi_gen_prime_fn
0bf4ed88 g       *ABS*	00000000 mbedtls_asn1_free_named_data
2000041c g     O .bss	00000004 mbedtls_ecp_tls_read_point_fn
0bf598bc g       *ABS*	00000000 mbedtls_sha384_info
0bf59c38 g       *ABS*	00000000 mbedtls_memory_buffer_set_verify
0bf527a0 g       *ABS*	00000000 mbedtls_cipher_set_iv
0bf5c0aa g       *ABS*	00000000 mbedtls_pk_check_pair
20000504 g     O .bss	00000004 mbedtls_rsa_rsassa_pkcs1_v15_sign_fn
0bf66aaa g       *ABS*	00000000 mbedtls_x509write_crt_set_serial
20000488 g     O .bss	00000004 mbedtls_mpi_mod_int_fn
2000052c g     O .bss	00000004 mbedtls_sha256_init_fn
0bf543ac g       *ABS*	00000000 mbedtls_des_setkey_dec
0bf66be6 g       *ABS*	00000000 mbedtls_x509write_crt_set_subject_key_identifier
0bf4f10e g       *ABS*	00000000 mbedtls_asn1_write_algorithm_identifier
0bf5c818 g       *ABS*	00000000 mbedtls_rsa_info
0bf59c42 g       *ABS*	00000000 mbedtls_memory_buffer_alloc_verify
08002b52 g     F .text	00000004 _close
200003f8 g     O .bss	00000004 mbedtls_ecp_point_cmp_fn
0bf58c8c g       *ABS*	00000000 mbedtls_hkdf_expand
0bf67342 g       *ABS*	00000000 mbedtls_x509write_csr_set_ns_cert_type



Disassembly of section .init:

08001000 <vector_base>:
vector_base():
D:/work/WIFI_GD32VW/Github_GD32VW55x/MSDK/plf/riscv/env/start.S:118
    .weak     EFUSE_IRQHandler                  # EFUSE
    .weak     QSPI_IRQHandler                   # QUADSPI
    .weak     PKCAU_IRQHandler                  # PKCAU

vector_base:
    j _start                                    /* 0: Reserved, Jump to _start when reset for vector table not remapped cases.*/
 8001000:	aac1                	j	80011d0 <_start>
 8001002:	0001                	nop
	...

080011d0 <_start>:
_start():
D:/work/WIFI_GD32VW/Github_GD32VW55x/MSDK/plf/riscv/env/start.S:241
    .type _start,@function

_start:

    /* Disable Global Interrupt */
    csrc CSR_MSTATUS, MSTATUS_MIE
 80011d0:	30047073          	csrci	mstatus,8
D:/work/WIFI_GD32VW/Github_GD32VW55x/MSDK/plf/riscv/env/start.S:245
    /* Initialize GP and Stack Pointer SP */
.option push
.option norelax
    la gp, __global_pointer$
 80011d4:	18000197          	auipc	gp,0x18000
 80011d8:	98c18193          	addi	gp,gp,-1652 # 20000b60 <__global_pointer$>
D:/work/WIFI_GD32VW/Github_GD32VW55x/MSDK/plf/riscv/env/start.S:247
.option pop
    la sp, _sp
 80011dc:	18003117          	auipc	sp,0x18003
 80011e0:	72410113          	addi	sp,sp,1828 # 20004900 <_sp>
D:/work/WIFI_GD32VW/Github_GD32VW55x/MSDK/plf/riscv/env/start.S:250

    /* Set the the NMI base to share with mtvec by setting CSR_MMISC_CTL */
    li t0, MMISC_CTL_NMI_CAUSE_FFF
 80011e4:	20000293          	li	t0,512
D:/work/WIFI_GD32VW/Github_GD32VW55x/MSDK/plf/riscv/env/start.S:251
    csrs CSR_MMISC_CTL, t0
 80011e8:	7d02a073          	csrs	mmisc_ctl,t0
D:/work/WIFI_GD32VW/Github_GD32VW55x/MSDK/plf/riscv/env/start.S:253
    /* Intial the mtvt*/
    la t0, vector_base
 80011ec:	00000297          	auipc	t0,0x0
 80011f0:	e1428293          	addi	t0,t0,-492 # 8001000 <vector_base>
D:/work/WIFI_GD32VW/Github_GD32VW55x/MSDK/plf/riscv/env/start.S:254
    csrw CSR_MTVT, t0
 80011f4:	30729073          	csrw	mtvt,t0
D:/work/WIFI_GD32VW/Github_GD32VW55x/MSDK/plf/riscv/env/start.S:257

    /* Intial the mtvt2 and enable it*/
    la t0, irq_entry
 80011f8:	00001297          	auipc	t0,0x1
 80011fc:	90428293          	addi	t0,t0,-1788 # 8001afc <irq_entry>
D:/work/WIFI_GD32VW/Github_GD32VW55x/MSDK/plf/riscv/env/start.S:258
    csrw CSR_MTVT2, t0
 8001200:	7ec29073          	csrw	mtvt2,t0
D:/work/WIFI_GD32VW/Github_GD32VW55x/MSDK/plf/riscv/env/start.S:259
    csrs CSR_MTVT2, 0x1
 8001204:	7ec0e073          	csrsi	mtvt2,1
D:/work/WIFI_GD32VW/Github_GD32VW55x/MSDK/plf/riscv/env/start.S:262

    /* Intial the CSR MTVEC for the Trap and NMI base addr*/
    la t0, exc_entry
 8001208:	00000297          	auipc	t0,0x0
 800120c:	7f828293          	addi	t0,t0,2040 # 8001a00 <exc_entry>
D:/work/WIFI_GD32VW/Github_GD32VW55x/MSDK/plf/riscv/env/start.S:263
    csrw CSR_MTVEC, t0
 8001210:	30529073          	csrw	mtvec,t0
D:/work/WIFI_GD32VW/Github_GD32VW55x/MSDK/plf/riscv/env/start.S:266

    /* Set the interrupt processing mode to ECLIC mode */
    li t0, 0x3f
 8001214:	03f00293          	li	t0,63
D:/work/WIFI_GD32VW/Github_GD32VW55x/MSDK/plf/riscv/env/start.S:267
    csrc CSR_MTVEC, t0
 8001218:	3052b073          	csrc	mtvec,t0
D:/work/WIFI_GD32VW/Github_GD32VW55x/MSDK/plf/riscv/env/start.S:268
    csrs CSR_MTVEC, 0x3
 800121c:	3051e073          	csrsi	mtvec,3
D:/work/WIFI_GD32VW/Github_GD32VW55x/MSDK/plf/riscv/env/start.S:272
    /* ===== Startup Stage 2 ===== */
#ifdef __riscv_flen
    /* Enable FPU */
    li t0, MSTATUS_FS
 8001220:	6299                	lui	t0,0x6
D:/work/WIFI_GD32VW/Github_GD32VW55x/MSDK/plf/riscv/env/start.S:273
    csrs mstatus, t0
 8001222:	3002a073          	csrs	mstatus,t0
D:/work/WIFI_GD32VW/Github_GD32VW55x/MSDK/plf/riscv/env/start.S:274
    csrw fcsr, x0
 8001226:	00301073          	fscsr	zero
D:/work/WIFI_GD32VW/Github_GD32VW55x/MSDK/plf/riscv/env/start.S:278
#endif

    /* Enable mcycle and minstret counter */
    csrci CSR_MCOUNTINHIBIT, 0x5
 800122a:	3202f073          	csrci	mcountinhibit,5
D:/work/WIFI_GD32VW/Github_GD32VW55x/MSDK/plf/riscv/env/start.S:282

    /* ===== Startup Stage 3 ===== */
    /* Load code to sram */
    la a0, _sicode
 800122e:	00000517          	auipc	a0,0x0
 8001232:	09e50513          	addi	a0,a0,158 # 80012cc <_sicode>
D:/work/WIFI_GD32VW/Github_GD32VW55x/MSDK/plf/riscv/env/start.S:283
    la a1, _scode
 8001236:	17fff597          	auipc	a1,0x17fff
 800123a:	0ca58593          	addi	a1,a1,202 # 20000300 <impure_data>
D:/work/WIFI_GD32VW/Github_GD32VW55x/MSDK/plf/riscv/env/start.S:284
    la a2, _ecode
 800123e:	17fff617          	auipc	a2,0x17fff
 8001242:	0c260613          	addi	a2,a2,194 # 20000300 <impure_data>
D:/work/WIFI_GD32VW/Github_GD32VW55x/MSDK/plf/riscv/env/start.S:285
    bgeu a1, a2, 2f
 8001246:	00c5fa63          	bgeu	a1,a2,800125a <_start+0x8a>
D:/work/WIFI_GD32VW/Github_GD32VW55x/MSDK/plf/riscv/env/start.S:287
1:
    lw t0, (a0)
 800124a:	00052283          	lw	t0,0(a0)
D:/work/WIFI_GD32VW/Github_GD32VW55x/MSDK/plf/riscv/env/start.S:288
    sw t0, (a1)
 800124e:	0055a023          	sw	t0,0(a1)
D:/work/WIFI_GD32VW/Github_GD32VW55x/MSDK/plf/riscv/env/start.S:289
    addi a0, a0, 4
 8001252:	0511                	addi	a0,a0,4
D:/work/WIFI_GD32VW/Github_GD32VW55x/MSDK/plf/riscv/env/start.S:290
    addi a1, a1, 4
 8001254:	0591                	addi	a1,a1,4
D:/work/WIFI_GD32VW/Github_GD32VW55x/MSDK/plf/riscv/env/start.S:291
    bltu a1, a2, 1b
 8001256:	fec5eae3          	bltu	a1,a2,800124a <_start+0x7a>
D:/work/WIFI_GD32VW/Github_GD32VW55x/MSDK/plf/riscv/env/start.S:295

2:
    /* Load data section */
    la a0, _data_lma
 800125a:	00003517          	auipc	a0,0x3
 800125e:	0ae50513          	addi	a0,a0,174 # 8004308 <_data_lma>
D:/work/WIFI_GD32VW/Github_GD32VW55x/MSDK/plf/riscv/env/start.S:296
    la a1, _data
 8001262:	17fff597          	auipc	a1,0x17fff
 8001266:	09e58593          	addi	a1,a1,158 # 20000300 <impure_data>
D:/work/WIFI_GD32VW/Github_GD32VW55x/MSDK/plf/riscv/env/start.S:297
    la a2, _edata
 800126a:	17fff617          	auipc	a2,0x17fff
 800126e:	0fe60613          	addi	a2,a2,254 # 20000368 <ecp_supported_curves>
D:/work/WIFI_GD32VW/Github_GD32VW55x/MSDK/plf/riscv/env/start.S:298
    bgeu a1, a2, 2f
 8001272:	00c5fa63          	bgeu	a1,a2,8001286 <_start+0xb6>
D:/work/WIFI_GD32VW/Github_GD32VW55x/MSDK/plf/riscv/env/start.S:300
1:
    lw t0, (a0)
 8001276:	00052283          	lw	t0,0(a0)
D:/work/WIFI_GD32VW/Github_GD32VW55x/MSDK/plf/riscv/env/start.S:301
    sw t0, (a1)
 800127a:	0055a023          	sw	t0,0(a1)
D:/work/WIFI_GD32VW/Github_GD32VW55x/MSDK/plf/riscv/env/start.S:302
    addi a0, a0, 4
 800127e:	0511                	addi	a0,a0,4
D:/work/WIFI_GD32VW/Github_GD32VW55x/MSDK/plf/riscv/env/start.S:303
    addi a1, a1, 4
 8001280:	0591                	addi	a1,a1,4
D:/work/WIFI_GD32VW/Github_GD32VW55x/MSDK/plf/riscv/env/start.S:304
    bltu a1, a2, 1b
 8001282:	fec5eae3          	bltu	a1,a2,8001276 <_start+0xa6>
D:/work/WIFI_GD32VW/Github_GD32VW55x/MSDK/plf/riscv/env/start.S:307
2:
    /* Clear bss section */
    la a0, __bss_start
 8001286:	17fff517          	auipc	a0,0x17fff
 800128a:	0e250513          	addi	a0,a0,226 # 20000368 <ecp_supported_curves>
D:/work/WIFI_GD32VW/Github_GD32VW55x/MSDK/plf/riscv/env/start.S:308
    la a1, _end
 800128e:	18002597          	auipc	a1,0x18002
 8001292:	38a58593          	addi	a1,a1,906 # 20003618 <_end>
D:/work/WIFI_GD32VW/Github_GD32VW55x/MSDK/plf/riscv/env/start.S:309
    bgeu a0, a1, 2f
 8001296:	00b57763          	bgeu	a0,a1,80012a4 <_start+0xd4>
D:/work/WIFI_GD32VW/Github_GD32VW55x/MSDK/plf/riscv/env/start.S:311
1:
    sw zero, (a0)
 800129a:	00052023          	sw	zero,0(a0)
D:/work/WIFI_GD32VW/Github_GD32VW55x/MSDK/plf/riscv/env/start.S:312
    addi a0, a0, 4
 800129e:	0511                	addi	a0,a0,4
D:/work/WIFI_GD32VW/Github_GD32VW55x/MSDK/plf/riscv/env/start.S:313
    bltu a0, a1, 1b
 80012a0:	feb56de3          	bltu	a0,a1,800129a <_start+0xca>
D:/work/WIFI_GD32VW/Github_GD32VW55x/MSDK/plf/riscv/env/start.S:320

    /*
     * Call vendor defined SystemInit to
     * initialize the micro-controller system
     */
    call SystemInit
 80012a4:	187010ef          	jal	ra,8002c2a <SystemInit>
D:/work/WIFI_GD32VW/Github_GD32VW55x/MSDK/plf/riscv/env/start.S:323

    /* Call global constructors */
    la a0, __libc_fini_array
 80012a8:	00002517          	auipc	a0,0x2
 80012ac:	d0450513          	addi	a0,a0,-764 # 8002fac <__libc_fini_array>
D:/work/WIFI_GD32VW/Github_GD32VW55x/MSDK/plf/riscv/env/start.S:324
    call atexit
 80012b0:	4f3010ef          	jal	ra,8002fa2 <atexit>
D:/work/WIFI_GD32VW/Github_GD32VW55x/MSDK/plf/riscv/env/start.S:326
    /* Call C/C++ constructor start up code */
    call __libc_init_array
 80012b4:	52d010ef          	jal	ra,8002fe0 <__libc_init_array>
D:/work/WIFI_GD32VW/Github_GD32VW55x/MSDK/plf/riscv/env/start.S:329

    /* do pre-init steps before main */
    call _premain_init
 80012b8:	7d5000ef          	jal	ra,800228c <_premain_init>
D:/work/WIFI_GD32VW/Github_GD32VW55x/MSDK/plf/riscv/env/start.S:332
    /* ===== Call Main Function  ===== */
    /* argc = argv = 0 */
    li a0, 0
 80012bc:	4501                	li	a0,0
D:/work/WIFI_GD32VW/Github_GD32VW55x/MSDK/plf/riscv/env/start.S:333
    li a1, 0
 80012be:	4581                	li	a1,0
D:/work/WIFI_GD32VW/Github_GD32VW55x/MSDK/plf/riscv/env/start.S:334
    call main
 80012c0:	29b5                	jal	800173c <main>
D:/work/WIFI_GD32VW/Github_GD32VW55x/MSDK/plf/riscv/env/start.S:336
    /* do post-main steps after main */
    call _postmain_fini
 80012c2:	7f9000ef          	jal	ra,80022ba <_postmain_fini>
D:/work/WIFI_GD32VW/Github_GD32VW55x/MSDK/plf/riscv/env/start.S:339

1:
    j 1b
 80012c6:	a001                	j	80012c6 <_start+0xf6>
	...

Disassembly of section .text:

08001300 <__sf_fake_stderr-0x348>:
 8001300:	1f10                	addi	a2,sp,944
 8001302:	0800                	addi	s0,sp,16
 8001304:	1f2a                	slli	t5,t5,0x2a
 8001306:	0800                	addi	s0,sp,16
 8001308:	1f12                	slli	t5,t5,0x24
 800130a:	0800                	addi	s0,sp,16
 800130c:	1f30                	addi	a2,sp,952
 800130e:	0800                	addi	s0,sp,16
 8001310:	1f38                	addi	a4,sp,952
 8001312:	0800                	addi	s0,sp,16
 8001314:	1f76                	slli	t5,t5,0x3d
 8001316:	0800                	addi	s0,sp,16
	...
 8001320:	0201                	addi	tp,tp,0
 8001322:	07060403          	lb	s0,112(a2)
 8001326:	0908                	addi	a0,sp,144
 8001328:	6172                	flw	ft2,28(sp)
 800132a:	203a                	fld	ft0,392(sp)
 800132c:	7830                	flw	fa2,112(s0)
 800132e:	7825                	lui	a6,0xfffe9
 8001330:	202c                	fld	fa1,64(s0)
 8001332:	7074                	flw	fa3,100(s0)
 8001334:	203a                	fld	ft0,392(sp)
 8001336:	7830                	flw	fa2,112(s0)
 8001338:	7825                	lui	a6,0xfffe9
 800133a:	202c                	fld	fa1,64(s0)
 800133c:	3074                	fld	fa3,224(s0)
 800133e:	203a                	fld	ft0,392(sp)
 8001340:	7830                	flw	fa2,112(s0)
 8001342:	7825                	lui	a6,0xfffe9
 8001344:	202c                	fld	fa1,64(s0)
 8001346:	3174                	fld	fa3,224(a0)
 8001348:	203a                	fld	ft0,392(sp)
 800134a:	7830                	flw	fa2,112(s0)
 800134c:	7825                	lui	a6,0xfffe9
 800134e:	202c                	fld	fa1,64(s0)
 8001350:	3274                	fld	fa3,224(a2)
 8001352:	203a                	fld	ft0,392(sp)
 8001354:	7830                	flw	fa2,112(s0)
 8001356:	7825                	lui	a6,0xfffe9
 8001358:	202c                	fld	fa1,64(s0)
 800135a:	3374                	fld	fa3,224(a4)
 800135c:	203a                	fld	ft0,392(sp)
 800135e:	7830                	flw	fa2,112(s0)
 8001360:	7825                	lui	a6,0xfffe9
 8001362:	202c                	fld	fa1,64(s0)
 8001364:	3474                	fld	fa3,232(s0)
 8001366:	203a                	fld	ft0,392(sp)
 8001368:	7830                	flw	fa2,112(s0)
 800136a:	7825                	lui	a6,0xfffe9
 800136c:	202c                	fld	fa1,64(s0)
 800136e:	3574                	fld	fa3,232(a0)
 8001370:	203a                	fld	ft0,392(sp)
 8001372:	7830                	flw	fa2,112(s0)
 8001374:	7825                	lui	a6,0xfffe9
 8001376:	202c                	fld	fa1,64(s0)
 8001378:	3674                	fld	fa3,232(a2)
 800137a:	203a                	fld	ft0,392(sp)
 800137c:	7830                	flw	fa2,112(s0)
 800137e:	7825                	lui	a6,0xfffe9
 8001380:	610a                	flw	ft2,128(sp)
 8001382:	3a30                	fld	fa2,112(a2)
 8001384:	3020                	fld	fs0,96(s0)
 8001386:	2578                	fld	fa4,200(a0)
 8001388:	2c78                	fld	fa4,216(s0)
 800138a:	6120                	flw	fs0,64(a0)
 800138c:	3a31                	jal	8000ca8 <compat_prefix+0xca8>
 800138e:	3020                	fld	fs0,96(s0)
 8001390:	2578                	fld	fa4,200(a0)
 8001392:	2c78                	fld	fa4,216(s0)
 8001394:	6120                	flw	fs0,64(a0)
 8001396:	3a32                	fld	fs4,296(sp)
 8001398:	3020                	fld	fs0,96(s0)
 800139a:	2578                	fld	fa4,200(a0)
 800139c:	2c78                	fld	fa4,216(s0)
 800139e:	6120                	flw	fs0,64(a0)
 80013a0:	30203a33          	0x30203a33
 80013a4:	2578                	fld	fa4,200(a0)
 80013a6:	2c78                	fld	fa4,216(s0)
 80013a8:	6120                	flw	fs0,64(a0)
 80013aa:	3a34                	fld	fa3,112(a2)
 80013ac:	3020                	fld	fs0,96(s0)
 80013ae:	2578                	fld	fa4,200(a0)
 80013b0:	2c78                	fld	fa4,216(s0)
 80013b2:	6120                	flw	fs0,64(a0)
 80013b4:	3a35                	jal	8000cf0 <compat_prefix+0xcf0>
 80013b6:	3020                	fld	fs0,96(s0)
 80013b8:	2578                	fld	fa4,200(a0)
 80013ba:	2c78                	fld	fa4,216(s0)
 80013bc:	6120                	flw	fs0,64(a0)
 80013be:	3a36                	fld	fs4,360(sp)
 80013c0:	3020                	fld	fs0,96(s0)
 80013c2:	2578                	fld	fa4,200(a0)
 80013c4:	2c78                	fld	fa4,216(s0)
 80013c6:	6120                	flw	fs0,64(a0)
 80013c8:	30203a37          	lui	s4,0x30203
 80013cc:	2578                	fld	fa4,200(a0)
 80013ce:	0a78                	addi	a4,sp,284
 80013d0:	636d                	lui	t1,0x1b
 80013d2:	7561                	lui	a0,0xffff8
 80013d4:	203a6573          	csrrsi	a0,0x203,20
 80013d8:	7830                	flw	fa2,112(s0)
 80013da:	7825                	lui	a6,0xfffe9
 80013dc:	202c                	fld	fa1,64(s0)
 80013de:	656d                	lui	a0,0x1b
 80013e0:	6370                	flw	fa2,68(a4)
 80013e2:	203a                	fld	ft0,392(sp)
 80013e4:	7830                	flw	fa2,112(s0)
 80013e6:	7825                	lui	a6,0xfffe9
 80013e8:	202c                	fld	fa1,64(s0)
 80013ea:	736d                	lui	t1,0xffffb
 80013ec:	6275                	lui	tp,0x1d
 80013ee:	3a6d                	jal	8000da8 <compat_prefix+0xda8>
 80013f0:	3020                	fld	fs0,96(s0)
 80013f2:	2578                	fld	fa4,200(a0)
 80013f4:	0a78                	addi	a4,sp,284
 80013f6:	0000                	unimp
 80013f8:	4d4e                	lw	s10,208(sp)
 80013fa:	2049                	jal	800147c <_sicode+0x1b0>
 80013fc:	000d                	c.nop	3
 80013fe:	0000                	unimp
 8001400:	434d                	li	t1,19
 8001402:	5541                	li	a0,-16
 8001404:	3a204553          	0x3a204553
 8001408:	3020                	fld	fs0,96(s0)
 800140a:	2578                	fld	fa4,200(a0)
 800140c:	786c                	flw	fa1,116(s0)
 800140e:	0a0d                	addi	s4,s4,3
 8001410:	0000                	unimp
 8001412:	0000                	unimp
 8001414:	444d                	li	s0,19
 8001416:	53554143          	fmadd.d	ft2,fa0,fs5,fa0,rmm
 800141a:	3a45                	jal	8000dca <compat_prefix+0xdca>
 800141c:	3020                	fld	fs0,96(s0)
 800141e:	2578                	fld	fa4,200(a0)
 8001420:	786c                	flw	fa1,116(s0)
 8001422:	0a0d                	addi	s4,s4,3
 8001424:	0000                	unimp
 8001426:	0000                	unimp
 8001428:	454d                	li	a0,19
 800142a:	4350                	lw	a2,4(a4)
 800142c:	2020                	fld	fs0,64(s0)
 800142e:	3a20                	fld	fs0,112(a2)
 8001430:	3020                	fld	fs0,96(s0)
 8001432:	2578                	fld	fa4,200(a0)
 8001434:	786c                	flw	fa1,116(s0)
 8001436:	0a0d                	addi	s4,s4,3
 8001438:	0000                	unimp
 800143a:	0000                	unimp
 800143c:	544d                	li	s0,-13
 800143e:	4156                	lw	sp,84(sp)
 8001440:	204c                	fld	fa1,128(s0)
 8001442:	3a20                	fld	fs0,112(a2)
 8001444:	3020                	fld	fs0,96(s0)
 8001446:	2578                	fld	fa4,200(a0)
 8001448:	786c                	flw	fa1,116(s0)
 800144a:	0a0d                	addi	s4,s4,3
 800144c:	0000                	unimp
 800144e:	0000                	unimp
 8001450:	424d                	li	tp,19
 8001452:	3a4c                	fld	fa1,176(a2)
 8001454:	4620                	lw	s0,72(a2)
 8001456:	7269                	lui	tp,0xffffa
 8001458:	70207473          	csrrci	s0,0x702,0
 800145c:	6972                	flw	fs2,28(sp)
 800145e:	746e                	flw	fs0,248(sp)
 8001460:	0d2e                	slli	s10,s10,0xb
 8001462:	000a                	c.slli	zero,0x2
 8001464:	6f4e                	flw	ft10,208(sp)
 8001466:	6920                	flw	fs0,80(a0)
 8001468:	616d                	addi	sp,sp,240
 800146a:	74206567          	0x74206567
 800146e:	6f62206f          	j	8023b64 <__fini_array_end+0x1f85c>
 8001472:	2820746f          	jal	s0,80086f4 <__fini_array_end+0x43ec>
 8001476:	6572                	flw	fa0,28(sp)
 8001478:	2074                	fld	fa3,192(s0)
 800147a:	203d                	jal	80014a8 <_sicode+0x1dc>
 800147c:	6425                	lui	s0,0x9
 800147e:	2e29                	jal	8001798 <main+0x5c>
 8001480:	0a0d                	addi	s4,s4,3
 8001482:	0000                	unimp
 8001484:	424d                	li	tp,19
 8001486:	3a4c                	fld	fa1,176(a2)
 8001488:	4220                	lw	s0,64(a2)
 800148a:	20746f6f          	jal	t5,8047e90 <__fini_array_end+0x43b88>
 800148e:	7266                	flw	ft4,120(sp)
 8001490:	49206d6f          	jal	s10,8007922 <__fini_array_end+0x361a>
 8001494:	616d                	addi	sp,sp,240
 8001496:	25206567          	0x25206567
 800149a:	2e64                	fld	fs1,216(a2)
 800149c:	0a0d                	addi	s4,s4,3
 800149e:	0000                	unimp
 80014a0:	6156                	flw	ft2,84(sp)
 80014a2:	696c                	flw	fa1,84(a0)
 80014a4:	6164                	flw	fs1,68(a0)
 80014a6:	6574                	flw	fa3,76(a0)
 80014a8:	4920                	lw	s0,80(a0)
 80014aa:	616d                	addi	sp,sp,240
 80014ac:	25206567          	0x25206567
 80014b0:	2064                	fld	fs1,192(s0)
 80014b2:	6166                	flw	ft2,88(sp)
 80014b4:	6c69                	lui	s8,0x1a
 80014b6:	6465                	lui	s0,0x19
 80014b8:	2820                	fld	fs0,80(s0)
 80014ba:	6572                	flw	fa0,28(sp)
 80014bc:	2074                	fld	fa3,192(s0)
 80014be:	203d                	jal	80014ec <_sicode+0x220>
 80014c0:	6425                	lui	s0,0x9
 80014c2:	2e29                	jal	80017dc <main+0xa0>
 80014c4:	0a0d                	addi	s4,s4,3
 80014c6:	0000                	unimp
 80014c8:	424d                	li	tp,19
 80014ca:	3a4c                	fld	fa1,176(a2)
 80014cc:	5620                	lw	s0,104(a2)
 80014ce:	6c61                	lui	s8,0x18
 80014d0:	6469                	lui	s0,0x1a
 80014d2:	7461                	lui	s0,0xffff8
 80014d4:	2065                	jal	800157c <_sicode+0x2b0>
 80014d6:	6d49                	lui	s10,0x12
 80014d8:	6761                	lui	a4,0x18
 80014da:	2065                	jal	8001582 <_sicode+0x2b6>
 80014dc:	6425                	lui	s0,0x9
 80014de:	4f20                	lw	s0,88(a4)
 80014e0:	0a0d2e4b          	fnmsub.d	ft8,fs10,ft0,ft1,rdn
 80014e4:	0000                	unimp
 80014e6:	0000                	unimp
 80014e8:	424d                	li	tp,19
 80014ea:	3a4c                	fld	fa1,176(a2)
 80014ec:	4a20                	lw	s0,80(a2)
 80014ee:	6d75                	lui	s10,0x1d
 80014f0:	2070                	fld	fa2,192(s0)
 80014f2:	6f74                	flw	fa3,92(a4)
 80014f4:	4d20                	lw	s0,88(a0)
 80014f6:	6961                	lui	s2,0x18
 80014f8:	206e                	fld	ft0,216(sp)
 80014fa:	6d49                	lui	s10,0x12
 80014fc:	6761                	lui	a4,0x18
 80014fe:	2065                	jal	80015a6 <_sicode+0x2da>
 8001500:	3028                	fld	fa0,96(s0)
 8001502:	2578                	fld	fa4,200(a0)
 8001504:	3830                	fld	fa2,112(s0)
 8001506:	2978                	fld	fa4,208(a0)
 8001508:	0d2e                	slli	s10,s10,0xb
 800150a:	000a                	c.slli	zero,0x2
 800150c:	6d69                	lui	s10,0x1a
 800150e:	6761                	lui	a4,0x18
 8001510:	5f65                	li	t5,-7
 8001512:	5f78                	lw	a4,124(a4)
 8001514:	6176                	flw	ft2,92(sp)
 8001516:	696c                	flw	fa1,84(a0)
 8001518:	6164                	flw	fs1,68(a0)
 800151a:	6574                	flw	fa3,76(a0)
 800151c:	203a                	fld	ft0,392(sp)
 800151e:	6d69                	lui	s10,0x1a
 8001520:	6761                	lui	a4,0x18
 8001522:	2065                	jal	80015ca <_sicode+0x2fe>
 8001524:	7366666f          	jal	a2,8067c5a <__fini_array_end+0x63952>
 8001528:	7465                	lui	s0,0xffff9
 800152a:	6920                	flw	fs0,80(a0)
 800152c:	78302073          	csrr	zero,0x783
 8001530:	7825                	lui	a6,0xfffe9
 8001532:	0d2e                	slli	s10,s10,0xb
 8001534:	000a                	c.slli	zero,0x2
 8001536:	0000                	unimp
 8001538:	6d69                	lui	s10,0x1a
 800153a:	6761                	lui	a4,0x18
 800153c:	5f65                	li	t5,-7
 800153e:	5f78                	lw	a4,124(a4)
 8001540:	6176                	flw	ft2,92(sp)
 8001542:	696c                	flw	fa1,84(a0)
 8001544:	6164                	flw	fs1,68(a0)
 8001546:	6574                	flw	fa3,76(a0)
 8001548:	203a                	fld	ft0,392(sp)
 800154a:	74726563          	bltu	tp,t2,8001c94 <fmc_lock+0xa>
 800154e:	6f20                	flw	fs0,88(a4)
 8001550:	2072                	fld	ft0,280(sp)
 8001552:	6d69                	lui	s10,0x1a
 8001554:	6761                	lui	a4,0x18
 8001556:	2065                	jal	80015fe <_sicode+0x332>
 8001558:	6576                	flw	fa0,92(sp)
 800155a:	6972                	flw	fs2,28(sp)
 800155c:	6966                	flw	fs2,88(sp)
 800155e:	6465                	lui	s0,0x19
 8001560:	6620                	flw	fs0,72(a2)
 8001562:	6961                	lui	s2,0x18
 8001564:	656c                	flw	fa1,76(a0)
 8001566:	2864                	fld	fs1,208(s0)
 8001568:	6425                	lui	s0,0x9
 800156a:	2e29                	jal	8001884 <main+0x148>
 800156c:	0d20                	addi	s0,sp,664
 800156e:	000a                	c.slli	zero,0x2
 8001570:	424d                	li	tp,19
 8001572:	3a4c                	fld	fa1,176(a2)
 8001574:	4920                	lw	s0,80(a0)
 8001576:	616d                	addi	sp,sp,240
 8001578:	63206567          	0x63206567
 800157c:	7265                	lui	tp,0xffff9
 800157e:	2074                	fld	fa3,192(s0)
 8001580:	6e61                	lui	t3,0x18
 8001582:	2064                	fld	fs1,192(s0)
 8001584:	61676973          	csrrsi	s2,0x616,14
 8001588:	7574                	flw	fa3,108(a0)
 800158a:	6572                	flw	fa0,28(sp)
 800158c:	7620                	flw	fs0,104(a2)
 800158e:	7265                	lui	tp,0xffff9
 8001590:	6669                	lui	a2,0x1a
 8001592:	6569                	lui	a0,0x1a
 8001594:	2064                	fld	fs1,192(s0)
 8001596:	0d2e4b4f          	fnmadd.h	fs6,ft8,fs2,ft1,rmm
 800159a:	000a                	c.slli	zero,0x2
 800159c:	6d69                	lui	s10,0x1a
 800159e:	6761                	lui	a4,0x18
 80015a0:	5f65                	li	t5,-7
 80015a2:	5f78                	lw	a4,124(a4)
 80015a4:	6176                	flw	ft2,92(sp)
 80015a6:	696c                	flw	fa1,84(a0)
 80015a8:	6164                	flw	fs1,68(a0)
 80015aa:	6574                	flw	fa3,76(a0)
 80015ac:	203a                	fld	ft0,392(sp)
 80015ae:	6d49                	lui	s10,0x12
 80015b0:	6761                	lui	a4,0x18
 80015b2:	2065                	jal	800165a <__sf_fake_stderr+0x12>
 80015b4:	6576                	flw	fa0,92(sp)
 80015b6:	6972                	flw	fs2,28(sp)
 80015b8:	6966                	flw	fs2,88(sp)
 80015ba:	6465                	lui	s0,0x19
 80015bc:	6620                	flw	fs0,72(a2)
 80015be:	6961                	lui	s2,0x18
 80015c0:	656c                	flw	fa1,76(a0)
 80015c2:	2064                	fld	fs1,192(s0)
 80015c4:	2528                	fld	fa0,72(a0)
 80015c6:	2964                	fld	fs1,208(a0)
 80015c8:	202e                	fld	ft0,200(sp)
 80015ca:	0a0d                	addi	s4,s4,3
 80015cc:	0000                	unimp
 80015ce:	0000                	unimp
 80015d0:	424d                	li	tp,19
 80015d2:	3a4c                	fld	fa1,176(a2)
 80015d4:	4920                	lw	s0,80(a0)
 80015d6:	616d                	addi	sp,sp,240
 80015d8:	76206567          	0x76206567
 80015dc:	7265                	lui	tp,0xffff9
 80015de:	6669                	lui	a2,0x1a
 80015e0:	6569                	lui	a0,0x1a
 80015e2:	2064                	fld	fs1,192(s0)
 80015e4:	0d2e4b4f          	fnmadd.h	fs6,ft8,fs2,ft1,rmm
 80015e8:	000a                	c.slli	zero,0x2
 80015ea:	0000                	unimp
 80015ec:	7055                	c.lui	zero,0xffff5
 80015ee:	6164                	flw	fs1,68(a0)
 80015f0:	6574                	flw	fa3,76(a0)
 80015f2:	4d20                	lw	s0,88(a0)
 80015f4:	6961                	lui	s2,0x18
 80015f6:	206e                	fld	ft0,216(sp)
 80015f8:	6d49                	lui	s10,0x12
 80015fa:	6761                	lui	a4,0x18
 80015fc:	2065                	jal	80016a4 <__sf_fake_stdout+0x1c>
 80015fe:	6576                	flw	fa0,92(sp)
 8001600:	7372                	flw	ft6,60(sp)
 8001602:	6f69                	lui	t5,0x1a
 8001604:	206e                	fld	ft0,216(sp)
 8001606:	6e756f63          	bltu	a0,t2,8001d04 <gpio_mode_set+0x8>
 800160a:	6574                	flw	fa3,76(a0)
 800160c:	2072                	fld	ft0,280(sp)
 800160e:	6166                	flw	ft2,88(sp)
 8001610:	6c69                	lui	s8,0x1a
 8001612:	6465                	lui	s0,0x19
 8001614:	2528                	fld	fa0,72(a0)
 8001616:	2964                	fld	fs1,208(a0)
 8001618:	0d2e                	slli	s10,s10,0xb
 800161a:	000a                	c.slli	zero,0x2
 800161c:	424d                	li	tp,19
 800161e:	3a4c                	fld	fa1,176(a2)
 8001620:	4320                	lw	s0,64(a4)
 8001622:	7275                	lui	tp,0xffffd
 8001624:	6572                	flw	fa0,28(sp)
 8001626:	746e                	flw	fs0,248(sp)
 8001628:	6920                	flw	fs0,80(a0)
 800162a:	616d                	addi	sp,sp,240
 800162c:	76206567          	0x76206567
 8001630:	7265                	lui	tp,0xffff9
 8001632:	6e6f6973          	csrrsi	s2,0x6e6,30
 8001636:	6920                	flw	fs0,80(a0)
 8001638:	64252073          	csrs	0x642,a0
 800163c:	252e                	fld	fa0,200(sp)
 800163e:	2e64                	fld	fs1,216(a2)
 8001640:	6425                	lui	s0,0x9
 8001642:	0a0d                	addi	s4,s4,3
 8001644:	0000                	unimp
	...

08001648 <__sf_fake_stderr>:
	...

08001668 <__sf_fake_stdin>:
	...

08001688 <__sf_fake_stdout>:
	...
 80016a8:	2d23 2b30 0020 0000 6c68 004c 6665 4567     #-0+ ...hlL.efgE
 80016b8:	4746 0000 3130 3332 3534 3736 3938 4241     FG..0123456789AB
 80016c8:	4443 4645 0000 0000 3130 3332 3534 3736     CDEF....01234567
 80016d8:	3938 6261 6463 6665 0000 0000 2806 0000     89abcdef.....(..
 80016e8:	281c 0000 27dc 0000 27dc 0000 27dc 0000     .(...'...'...'..
 80016f8:	27dc 0000 281c 0000 27dc 0000 27dc 0000     .'...(...'...'..
 8001708:	27dc 0000 27dc 0000 2972 0000 285a 0000     .'...'..r)..Z(..
 8001718:	2946 0000 27dc 0000 27dc 0000 29a0 0000     F)...'...'...)..
 8001728:	27dc 0000 285a 0000 27dc 0000 27dc 0000     .'..Z(...'...'..
 8001738:	294e 0000                                   N)..

0800173c <main>:
main():
D:/work/WIFI_GD32VW/Github_GD32VW55x/MBL/mainboot/mbl.c:204
    \param[in]  none
    \param[out] none
    \retval     none
*/
int main(void)
{
 800173c:	037012ef          	jal	t0,8002f72 <__riscv_save_0>
 8001740:	7171                	addi	sp,sp,-176
D:/work/WIFI_GD32VW/Github_GD32VW55x/MBL/mainboot/mbl.c:214
    int secure_boot = 1;
    uint8_t val;
    int ret;

    /* Read Initial boot state from shared SRAM */
    memcpy(&ibl_state, (void *)IBL_SHARED_DATA_START, sizeof(struct ibl_state_t));
 8001742:	200006b7          	lui	a3,0x20000
 8001746:	20068793          	addi	a5,a3,512 # 20000200 <mbedtls_mpi_mul_mpi_sw+0x14091a20>
D:/work/WIFI_GD32VW/Github_GD32VW55x/MBL/mainboot/mbl.c:208
    uint32_t boot_idx = 0, image_offset = 0;
 800174a:	c402                	sw	zero,8(sp)
 800174c:	c602                	sw	zero,12(sp)
D:/work/WIFI_GD32VW/Github_GD32VW55x/MBL/mainboot/mbl.c:214
    memcpy(&ibl_state, (void *)IBL_SHARED_DATA_START, sizeof(struct ibl_state_t));
 800174e:	0818                	addi	a4,sp,16
 8001750:	2a068693          	addi	a3,a3,672
 8001754:	0007a803          	lw	a6,0(a5)
 8001758:	43c8                	lw	a0,4(a5)
 800175a:	478c                	lw	a1,8(a5)
 800175c:	47d0                	lw	a2,12(a5)
 800175e:	01072023          	sw	a6,0(a4) # 18000 <__stack_size+0x17000>
 8001762:	c348                	sw	a0,4(a4)
 8001764:	c70c                	sw	a1,8(a4)
 8001766:	c750                	sw	a2,12(a4)
 8001768:	07c1                	addi	a5,a5,16
 800176a:	0741                	addi	a4,a4,16
 800176c:	fed794e3          	bne	a5,a3,8001754 <main+0x18>
D:/work/WIFI_GD32VW/Github_GD32VW55x/MBL/mainboot/mbl.c:215
    if (ibl_state.magic != IBL_STATE_MAGIC_CODE) { /* Not boot from ROM */
 8001770:	4742                	lw	a4,16(sp)
 8001772:	bacec7b7          	lui	a5,0xbacec
 8001776:	0de78793          	addi	a5,a5,222 # bacec0de <_sp+0x9ace77de>
 800177a:	18f71963          	bne	a4,a5,800190c <main+0x1d0>
D:/work/WIFI_GD32VW/Github_GD32VW55x/MBL/mainboot/mbl.c:222
        memset((void *)IBL_DATA_START, 0, IBL_DATA_SIZE);
        memset(&ibl_state, 0, sizeof(struct ibl_state_t));
    }

    /* Initialize ROM symbols */
    rom_symbol_init();
 800177e:	343000ef          	jal	ra,80022c0 <rom_symbol_init>
D:/work/WIFI_GD32VW/Github_GD32VW55x/MBL/mainboot/mbl.c:225

    /* Used for image x validation */
    mbedtls_memory_buffer_alloc_init(alloc_buf, sizeof(alloc_buf));
 8001782:	20000537          	lui	a0,0x20000
 8001786:	658d                	lui	a1,0x3
 8001788:	58850513          	addi	a0,a0,1416 # 20000588 <alloc_buf>
 800178c:	20000437          	lui	s0,0x20000
 8001790:	03f58097          	auipc	ra,0x3f58
 8001794:	4b6080e7          	jalr	1206(ra) # bf59c46 <mbedtls_memory_buffer_alloc_init>
D:/work/WIFI_GD32VW/Github_GD32VW55x/MBL/mainboot/mbl.c:228

    /* Not boot from ROM */
    if (secure_boot == 0) {
 8001798:	36040413          	addi	s0,s0,864 # 20000360 <p_rom_api>
log_uart_init():
D:/work/WIFI_GD32VW/Github_GD32VW55x/MBL/mainboot/mbl.c:91
        rcu_periph_clock_enable(RCU_UART2);
 800179c:	6485                	lui	s1,0x1
 800179e:	10448513          	addi	a0,s1,260 # 1104 <__stack_size+0x104>
 80017a2:	2d81                	jal	8001df2 <rcu_periph_clock_enable>
D:/work/WIFI_GD32VW/Github_GD32VW55x/MBL/mainboot/mbl.c:92
        rcu_periph_clock_enable(RCU_GPIOA);
 80017a4:	c0048513          	addi	a0,s1,-1024
 80017a8:	25a9                	jal	8001df2 <rcu_periph_clock_enable>
D:/work/WIFI_GD32VW/Github_GD32VW55x/MBL/mainboot/mbl.c:93
        gpio_af_set(GPIOA, GPIO_AF_10, GPIO_PIN_6);  // UART2 TX
 80017aa:	04000613          	li	a2,64
 80017ae:	45a9                	li	a1,10
 80017b0:	40020537          	lui	a0,0x40020
 80017b4:	2bf9                	jal	8001d92 <gpio_af_set>
D:/work/WIFI_GD32VW/Github_GD32VW55x/MBL/mainboot/mbl.c:94
        gpio_af_set(GPIOA, GPIO_AF_8, GPIO_PIN_7);   // UART2 RX
 80017b6:	08000613          	li	a2,128
 80017ba:	45a1                	li	a1,8
 80017bc:	40020537          	lui	a0,0x40020
 80017c0:	2bc9                	jal	8001d92 <gpio_af_set>
D:/work/WIFI_GD32VW/Github_GD32VW55x/MBL/mainboot/mbl.c:95
        gpio_mode_set(GPIOA, GPIO_MODE_AF, GPIO_PUPD_NONE, GPIO_PIN_6);
 80017c2:	04000693          	li	a3,64
 80017c6:	4601                	li	a2,0
 80017c8:	4589                	li	a1,2
 80017ca:	40020537          	lui	a0,0x40020
 80017ce:	233d                	jal	8001cfc <gpio_mode_set>
D:/work/WIFI_GD32VW/Github_GD32VW55x/MBL/mainboot/mbl.c:96
        gpio_output_options_set(GPIOA, GPIO_OTYPE_PP, GPIO_OSPEED_25MHZ, GPIO_PIN_6);
 80017d0:	04000693          	li	a3,64
 80017d4:	4609                	li	a2,2
 80017d6:	4581                	li	a1,0
 80017d8:	40020537          	lui	a0,0x40020
 80017dc:	23bd                	jal	8001d4a <gpio_output_options_set>
D:/work/WIFI_GD32VW/Github_GD32VW55x/MBL/mainboot/mbl.c:97
        gpio_mode_set(GPIOA, GPIO_MODE_AF, GPIO_PUPD_NONE, GPIO_PIN_7);
 80017de:	08000693          	li	a3,128
 80017e2:	4601                	li	a2,0
 80017e4:	4589                	li	a1,2
 80017e6:	40020537          	lui	a0,0x40020
 80017ea:	2b09                	jal	8001cfc <gpio_mode_set>
D:/work/WIFI_GD32VW/Github_GD32VW55x/MBL/mainboot/mbl.c:98
        gpio_output_options_set(GPIOA, GPIO_OTYPE_PP, GPIO_OSPEED_25MHZ, GPIO_PIN_7);
 80017ec:	08000693          	li	a3,128
 80017f0:	4609                	li	a2,2
 80017f2:	4581                	li	a1,0
 80017f4:	40020537          	lui	a0,0x40020
 80017f8:	2b89                	jal	8001d4a <gpio_output_options_set>
D:/work/WIFI_GD32VW/Github_GD32VW55x/MBL/mainboot/mbl.c:123
    usart_deinit(usart_periph);
 80017fa:	40011537          	lui	a0,0x40011
 80017fe:	7b6000ef          	jal	ra,8001fb4 <usart_deinit>
D:/work/WIFI_GD32VW/Github_GD32VW55x/MBL/mainboot/mbl.c:124
    usart_baudrate_set(usart_periph, 115200U);
 8001802:	65f1                	lui	a1,0x1c
 8001804:	20058593          	addi	a1,a1,512 # 1c200 <__stack_size+0x1b200>
 8001808:	40011537          	lui	a0,0x40011
 800180c:	007000ef          	jal	ra,8002012 <usart_baudrate_set>
D:/work/WIFI_GD32VW/Github_GD32VW55x/MBL/mainboot/mbl.c:125
    usart_receive_config(usart_periph, USART_RECEIVE_ENABLE);
 8001810:	4591                	li	a1,4
 8001812:	40011537          	lui	a0,0x40011
 8001816:	08b000ef          	jal	ra,80020a0 <usart_receive_config>
D:/work/WIFI_GD32VW/Github_GD32VW55x/MBL/mainboot/mbl.c:126
    usart_transmit_config(usart_periph, USART_TRANSMIT_ENABLE);
 800181a:	45a1                	li	a1,8
 800181c:	40011537          	lui	a0,0x40011
 8001820:	073000ef          	jal	ra,8002092 <usart_transmit_config>
D:/work/WIFI_GD32VW/Github_GD32VW55x/MBL/mainboot/mbl.c:127
    usart_interrupt_enable(usart_periph, USART_INT_RBNE);
 8001824:	4595                	li	a1,5
 8001826:	40011537          	lui	a0,0x40011
 800182a:	0a1000ef          	jal	ra,80020ca <usart_interrupt_enable>
D:/work/WIFI_GD32VW/Github_GD32VW55x/MBL/mainboot/mbl.c:129
    usart_enable(usart_periph);
 800182e:	40011537          	lui	a0,0x40011
 8001832:	057000ef          	jal	ra,8002088 <usart_enable>
main():
D:/work/WIFI_GD32VW/Github_GD32VW55x/MBL/mainboot/mbl.c:251
    }

    /* Reinitialize uart since system clock source changed from IRC16M to HXTAL40M */
    log_uart_init();

    rom_trace_ex(ROM_ALWAYS, "MBL: First print.\r\n");
 8001836:	401c                	lw	a5,0(s0)
 8001838:	080015b7          	lui	a1,0x8001
 800183c:	45058593          	addi	a1,a1,1104 # 8001450 <_sicode+0x184>
 8001840:	43dc                	lw	a5,4(a5)
 8001842:	4505                	li	a0,1
 8001844:	9782                	jalr	a5
D:/work/WIFI_GD32VW/Github_GD32VW55x/MBL/mainboot/mbl.c:254

    /* Find the correct image to boot, Image 0 or Image 1 */
    ret = boot_image_find(&boot_idx, &image_offset);
 8001846:	006c                	addi	a1,sp,12
 8001848:	0028                	addi	a0,sp,8
 800184a:	4ea010ef          	jal	ra,8002d34 <boot_image_find>
D:/work/WIFI_GD32VW/Github_GD32VW55x/MBL/mainboot/mbl.c:256
    if (ret < 0) {
        rom_trace_ex(ROM_ERR, "No image to boot (ret = %d).\r\n", ret);
 800184e:	401c                	lw	a5,0(s0)
D:/work/WIFI_GD32VW/Github_GD32VW55x/MBL/mainboot/mbl.c:255
    if (ret < 0) {
 8001850:	14054463          	bltz	a0,8001998 <main+0x25c>
D:/work/WIFI_GD32VW/Github_GD32VW55x/MBL/mainboot/mbl.c:259
        goto BootFailed;
    } else {
        rom_trace_ex(ROM_ALWAYS, "MBL: Boot from Image %d.\r\n", boot_idx);
 8001854:	43dc                	lw	a5,4(a5)
 8001856:	4622                	lw	a2,8(sp)
 8001858:	080015b7          	lui	a1,0x8001
 800185c:	48458593          	addi	a1,a1,1156 # 8001484 <_sicode+0x1b8>
 8001860:	4505                	li	a0,1
 8001862:	9782                	jalr	a5
D:/work/WIFI_GD32VW/Github_GD32VW55x/MBL/mainboot/mbl.c:263
    }

    /* If boot from Image 1, config offset mapping */
    if (boot_idx == IMAGE_1) {
 8001864:	4722                	lw	a4,8(sp)
 8001866:	4785                	li	a5,1
 8001868:	16f70863          	beq	a4,a5,80019d8 <main+0x29c>
D:/work/WIFI_GD32VW/Github_GD32VW55x/MBL/mainboot/mbl.c:268
        flash_offset_mapping();
    }

    /* Use HAU DMA to accelerate digest calculation */
    rcu_periph_clock_enable(RCU_DMA);
 800186c:	6505                	lui	a0,0x1
 800186e:	c1550513          	addi	a0,a0,-1003 # c15 <__stack_size-0x3eb>
 8001872:	2341                	jal	8001df2 <rcu_periph_clock_enable>
D:/work/WIFI_GD32VW/Github_GD32VW55x/MBL/mainboot/mbl.c:269
    rom_digest_haudma_en(1);
 8001874:	401c                	lw	a5,0(s0)
 8001876:	4505                	li	a0,1
 8001878:	5bbc                	lw	a5,112(a5)
 800187a:	9782                	jalr	a5
D:/work/WIFI_GD32VW/Github_GD32VW55x/MBL/mainboot/mbl.c:272

    /* Verify Image */
    ret = image_x_validate((image_offset - sizeof(struct image_header)), ibl_state.rotpk_hash, ibl_state.ibl_opt);
 800187c:	4532                	lw	a0,12(sp)
 800187e:	02014603          	lbu	a2,32(sp)
 8001882:	104c                	addi	a1,sp,36
 8001884:	1501                	addi	a0,a0,-32
 8001886:	5ba010ef          	jal	ra,8002e40 <image_x_validate>
D:/work/WIFI_GD32VW/Github_GD32VW55x/MBL/mainboot/mbl.c:274
    if (ret < 0) {
        rom_trace_ex(ROM_ERR, "Validate Image %d failed (ret = %d).\r\n", boot_idx, ret);
 800188a:	401c                	lw	a5,0(s0)
 800188c:	4622                	lw	a2,8(sp)
 800188e:	43dc                	lw	a5,4(a5)
D:/work/WIFI_GD32VW/Github_GD32VW55x/MBL/mainboot/mbl.c:273
    if (ret < 0) {
 8001890:	12054163          	bltz	a0,80019b2 <main+0x276>
D:/work/WIFI_GD32VW/Github_GD32VW55x/MBL/mainboot/mbl.c:278
        rom_sys_set_img_flag(boot_idx, IMG_FLAG_VERIFY_MASK, IMG_FLAG_VERIFY_FAIL);
        goto BootFailed;
    } else {
        rom_trace_ex(ROM_ALWAYS, "MBL: Validate Image %d OK.\r\n", boot_idx);
 8001894:	080015b7          	lui	a1,0x8001
 8001898:	4c858593          	addi	a1,a1,1224 # 80014c8 <_sicode+0x1fc>
 800189c:	4505                	li	a0,1
 800189e:	9782                	jalr	a5
D:/work/WIFI_GD32VW/Github_GD32VW55x/MBL/mainboot/mbl.c:282
    }

    /* Update Image status and Running Image flag */
    rom_sys_set_img_flag(boot_idx, IMG_FLAG_VERIFY_MASK, IMG_FLAG_VERIFY_OK);
 80018a0:	401c                	lw	a5,0(s0)
 80018a2:	00814503          	lbu	a0,8(sp)
 80018a6:	4609                	li	a2,2
 80018a8:	43bc                	lw	a5,64(a5)
 80018aa:	4599                	li	a1,6
D:/work/WIFI_GD32VW/Github_GD32VW55x/MBL/mainboot/mbl.c:287
    rom_sys_set_running_img(boot_idx);

    mbedtls_deinit();

    start_addr = FLASH_BASE + image_offset;
 80018ac:	080004b7          	lui	s1,0x8000
D:/work/WIFI_GD32VW/Github_GD32VW55x/MBL/mainboot/mbl.c:282
    rom_sys_set_img_flag(boot_idx, IMG_FLAG_VERIFY_MASK, IMG_FLAG_VERIFY_OK);
 80018b0:	9782                	jalr	a5
D:/work/WIFI_GD32VW/Github_GD32VW55x/MBL/mainboot/mbl.c:283
    rom_sys_set_running_img(boot_idx);
 80018b2:	401c                	lw	a5,0(s0)
 80018b4:	00814503          	lbu	a0,8(sp)
 80018b8:	47bc                	lw	a5,72(a5)
 80018ba:	9782                	jalr	a5
mbedtls_deinit():
D:/work/WIFI_GD32VW/Github_GD32VW55x/MBL/mainboot/mbl.c:167
    mbedtls_platform_set_calloc_free(NULL, NULL);
 80018bc:	4581                	li	a1,0
 80018be:	4501                	li	a0,0
 80018c0:	03f5d097          	auipc	ra,0x3f5d
 80018c4:	198080e7          	jalr	408(ra) # bf5ea58 <mbedtls_platform_set_calloc_free>
D:/work/WIFI_GD32VW/Github_GD32VW55x/MBL/mainboot/mbl.c:168
    mbedtls_platform_set_snprintf(NULL);
 80018c8:	4501                	li	a0,0
 80018ca:	03f5d097          	auipc	ra,0x3f5d
 80018ce:	1e8080e7          	jalr	488(ra) # bf5eab2 <mbedtls_platform_set_snprintf>
D:/work/WIFI_GD32VW/Github_GD32VW55x/MBL/mainboot/mbl.c:169
    mbedtls_platform_set_printf(NULL);
 80018d2:	4501                	li	a0,0
 80018d4:	03f5d097          	auipc	ra,0x3f5d
 80018d8:	224080e7          	jalr	548(ra) # bf5eaf8 <mbedtls_platform_set_printf>
main():
D:/work/WIFI_GD32VW/Github_GD32VW55x/MBL/mainboot/mbl.c:287
    start_addr = FLASH_BASE + image_offset;
 80018dc:	46b2                	lw	a3,12(sp)
D:/work/WIFI_GD32VW/Github_GD32VW55x/MBL/mainboot/mbl.c:288
    if (boot_idx == IMAGE_1) {
 80018de:	4722                	lw	a4,8(sp)
 80018e0:	4785                	li	a5,1
D:/work/WIFI_GD32VW/Github_GD32VW55x/MBL/mainboot/mbl.c:287
    start_addr = FLASH_BASE + image_offset;
 80018e2:	94b6                	add	s1,s1,a3
D:/work/WIFI_GD32VW/Github_GD32VW55x/MBL/mainboot/mbl.c:288
    if (boot_idx == IMAGE_1) {
 80018e4:	0cf70363          	beq	a4,a5,80019aa <main+0x26e>
D:/work/WIFI_GD32VW/Github_GD32VW55x/MBL/mainboot/mbl.c:291
        rom_trace_ex(ROM_ALWAYS, "MBL: Jump to Main Image (0x%08x).\r\n", FLASH_BASE + RE_IMG_1_OFFSET);
    } else {
        rom_trace_ex(ROM_ALWAYS, "MBL: Jump to Main Image (0x%08x).\r\n", start_addr);
 80018e8:	401c                	lw	a5,0(s0)
 80018ea:	8626                	mv	a2,s1
 80018ec:	43dc                	lw	a5,4(a5)
 80018ee:	080015b7          	lui	a1,0x8001
 80018f2:	4e858593          	addi	a1,a1,1256 # 80014e8 <_sicode+0x21c>
 80018f6:	4505                	li	a0,1
 80018f8:	9782                	jalr	a5
D:/work/WIFI_GD32VW/Github_GD32VW55x/MBL/mainboot/mbl.c:293
    }
    log_uart_idle_wait();
 80018fa:	3f6010ef          	jal	ra,8002cf0 <log_uart_idle_wait>
jump_to_main_image():
D:/work/WIFI_GD32VW/Github_GD32VW55x/MBL/mainboot/mbl.c:189
    __asm volatile("la    a2, reloc_iv;" \
 80018fe:	00001617          	auipc	a2,0x1
 8001902:	42e60613          	addi	a2,a2,1070 # 8002d2c <reloc_iv>
 8001906:	9602                	jalr	a2
D:/work/WIFI_GD32VW/Github_GD32VW55x/MBL/mainboot/mbl.c:194
    __asm volatile("jr %0":: "r"((uint8_t *)(start_addr)));
 8001908:	8482                	jr	s1
main():
D:/work/WIFI_GD32VW/Github_GD32VW55x/MBL/mainboot/mbl.c:299 (discriminator 1)

    /* Jump to main image */
    jump_to_main_image(start_addr);

BootFailed:
    while(1);
 800190a:	a001                	j	800190a <main+0x1ce>
D:/work/WIFI_GD32VW/Github_GD32VW55x/MBL/mainboot/mbl.c:217
        memset((void *)IBL_DATA_START, 0, IBL_DATA_SIZE);
 800190c:	20000613          	li	a2,512
 8001910:	4581                	li	a1,0
 8001912:	20000537          	lui	a0,0x20000
 8001916:	728010ef          	jal	ra,800303e <memset>
D:/work/WIFI_GD32VW/Github_GD32VW55x/MBL/mainboot/mbl.c:218
        memset(&ibl_state, 0, sizeof(struct ibl_state_t));
 800191a:	0a000613          	li	a2,160
 800191e:	4581                	li	a1,0
 8001920:	0808                	addi	a0,sp,16
 8001922:	71c010ef          	jal	ra,800303e <memset>
D:/work/WIFI_GD32VW/Github_GD32VW55x/MBL/mainboot/mbl.c:222
    rom_symbol_init();
 8001926:	19b000ef          	jal	ra,80022c0 <rom_symbol_init>
D:/work/WIFI_GD32VW/Github_GD32VW55x/MBL/mainboot/mbl.c:225
    mbedtls_memory_buffer_alloc_init(alloc_buf, sizeof(alloc_buf));
 800192a:	20000537          	lui	a0,0x20000
 800192e:	658d                	lui	a1,0x3
 8001930:	58850513          	addi	a0,a0,1416 # 20000588 <alloc_buf>
 8001934:	03f58097          	auipc	ra,0x3f58
 8001938:	312080e7          	jalr	786(ra) # bf59c46 <mbedtls_memory_buffer_alloc_init>
D:/work/WIFI_GD32VW/Github_GD32VW55x/MBL/mainboot/mbl.c:229
        rcu_periph_clock_enable(RCU_PKCAU);
 800193c:	6405                	lui	s0,0x1
 800193e:	d0340513          	addi	a0,s0,-765 # d03 <__stack_size-0x2fd>
 8001942:	2945                	jal	8001df2 <rcu_periph_clock_enable>
D:/work/WIFI_GD32VW/Github_GD32VW55x/MBL/mainboot/mbl.c:230
        rcu_periph_clock_enable(RCU_CAU);
 8001944:	d0440513          	addi	a0,s0,-764
 8001948:	216d                	jal	8001df2 <rcu_periph_clock_enable>
D:/work/WIFI_GD32VW/Github_GD32VW55x/MBL/mainboot/mbl.c:231
        rcu_periph_clock_enable(RCU_HAU);
 800194a:	d0540513          	addi	a0,s0,-763
D:/work/WIFI_GD32VW/Github_GD32VW55x/MBL/mainboot/mbl.c:233
        rom_sys_status_check();
 800194e:	20000437          	lui	s0,0x20000
D:/work/WIFI_GD32VW/Github_GD32VW55x/MBL/mainboot/mbl.c:231
        rcu_periph_clock_enable(RCU_HAU);
 8001952:	2145                	jal	8001df2 <rcu_periph_clock_enable>
D:/work/WIFI_GD32VW/Github_GD32VW55x/MBL/mainboot/mbl.c:233
        rom_sys_status_check();
 8001954:	36040413          	addi	s0,s0,864 # 20000360 <p_rom_api>
 8001958:	401c                	lw	a5,0(s0)
 800195a:	57bc                	lw	a5,104(a5)
 800195c:	9782                	jalr	a5
D:/work/WIFI_GD32VW/Github_GD32VW55x/MBL/mainboot/mbl.c:234
        rom_log_uart_set(LOG_UART);
 800195e:	401c                	lw	a5,0(s0)
 8001960:	40011537          	lui	a0,0x40011
 8001964:	57fc                	lw	a5,108(a5)
 8001966:	9782                	jalr	a5
D:/work/WIFI_GD32VW/Github_GD32VW55x/MBL/mainboot/mbl.c:235
        ret = rom_sys_status_get(SYS_TRACE_LEVEL, LEN_SYS_TRACE_LEVEL, &val);
 8001968:	401c                	lw	a5,0(s0)
 800196a:	00710613          	addi	a2,sp,7
 800196e:	4585                	li	a1,1
 8001970:	5bdc                	lw	a5,52(a5)
 8001972:	4509                	li	a0,2
 8001974:	9782                	jalr	a5
D:/work/WIFI_GD32VW/Github_GD32VW55x/MBL/mainboot/mbl.c:237
            rom_sys_set_trace_level(val);
 8001976:	401c                	lw	a5,0(s0)
D:/work/WIFI_GD32VW/Github_GD32VW55x/MBL/mainboot/mbl.c:236
        if (ret == SYS_STATUS_OK) {
 8001978:	ed21                	bnez	a0,80019d0 <main+0x294>
D:/work/WIFI_GD32VW/Github_GD32VW55x/MBL/mainboot/mbl.c:237
            rom_sys_set_trace_level(val);
 800197a:	00714503          	lbu	a0,7(sp)
 800197e:	5f9c                	lw	a5,56(a5)
 8001980:	9782                	jalr	a5
D:/work/WIFI_GD32VW/Github_GD32VW55x/MBL/mainboot/mbl.c:242
        mbedtls_platform_set_hardware_poll(rom_hardware_poll);
 8001982:	401c                	lw	a5,0(s0)
 8001984:	47c8                	lw	a0,12(a5)
 8001986:	03f57097          	auipc	ra,0x3f57
 800198a:	976080e7          	jalr	-1674(ra) # bf582fc <mbedtls_platform_set_hardware_poll>
D:/work/WIFI_GD32VW/Github_GD32VW55x/MBL/mainboot/mbl.c:245
        mbedtls_ecp_curve_val_init();
 800198e:	03f55097          	auipc	ra,0x3f55
 8001992:	69c080e7          	jalr	1692(ra) # bf5702a <mbedtls_ecp_curve_val_init>
 8001996:	b519                	j	800179c <main+0x60>
D:/work/WIFI_GD32VW/Github_GD32VW55x/MBL/mainboot/mbl.c:256
        rom_trace_ex(ROM_ERR, "No image to boot (ret = %d).\r\n", ret);
 8001998:	43dc                	lw	a5,4(a5)
 800199a:	080015b7          	lui	a1,0x8001
 800199e:	862a                	mv	a2,a0
 80019a0:	46458593          	addi	a1,a1,1124 # 8001464 <_sicode+0x198>
 80019a4:	4509                	li	a0,2
 80019a6:	9782                	jalr	a5
D:/work/WIFI_GD32VW/Github_GD32VW55x/MBL/mainboot/mbl.c:257
        goto BootFailed;
 80019a8:	b78d                	j	800190a <main+0x1ce>
D:/work/WIFI_GD32VW/Github_GD32VW55x/MBL/mainboot/mbl.c:289
        rom_trace_ex(ROM_ALWAYS, "MBL: Jump to Main Image (0x%08x).\r\n", FLASH_BASE + RE_IMG_1_OFFSET);
 80019aa:	401c                	lw	a5,0(s0)
 80019ac:	081ea637          	lui	a2,0x81ea
 80019b0:	bf35                	j	80018ec <main+0x1b0>
D:/work/WIFI_GD32VW/Github_GD32VW55x/MBL/mainboot/mbl.c:274
        rom_trace_ex(ROM_ERR, "Validate Image %d failed (ret = %d).\r\n", boot_idx, ret);
 80019b2:	080015b7          	lui	a1,0x8001
 80019b6:	86aa                	mv	a3,a0
 80019b8:	4a058593          	addi	a1,a1,1184 # 80014a0 <_sicode+0x1d4>
 80019bc:	4509                	li	a0,2
 80019be:	9782                	jalr	a5
D:/work/WIFI_GD32VW/Github_GD32VW55x/MBL/mainboot/mbl.c:275
        rom_sys_set_img_flag(boot_idx, IMG_FLAG_VERIFY_MASK, IMG_FLAG_VERIFY_FAIL);
 80019c0:	401c                	lw	a5,0(s0)
 80019c2:	00814503          	lbu	a0,8(sp)
 80019c6:	4611                	li	a2,4
 80019c8:	43bc                	lw	a5,64(a5)
 80019ca:	4599                	li	a1,6
 80019cc:	9782                	jalr	a5
D:/work/WIFI_GD32VW/Github_GD32VW55x/MBL/mainboot/mbl.c:276
        goto BootFailed;
 80019ce:	bf35                	j	800190a <main+0x1ce>
D:/work/WIFI_GD32VW/Github_GD32VW55x/MBL/mainboot/mbl.c:239
            rom_sys_set_trace_level(ROM_INFO);
 80019d0:	5f9c                	lw	a5,56(a5)
 80019d2:	4511                	li	a0,4
 80019d4:	9782                	jalr	a5
 80019d6:	b775                	j	8001982 <main+0x246>
D:/work/WIFI_GD32VW/Github_GD32VW55x/MBL/mainboot/mbl.c:264
        flash_offset_mapping();
 80019d8:	32c010ef          	jal	ra,8002d04 <flash_offset_mapping>
 80019dc:	bd41                	j	800186c <main+0x130>
	...

08001a00 <exc_entry>:
exc_entry():
D:/work/WIFI_GD32VW/Github_GD32VW55x/MSDK/plf/riscv/env/entry.S:233
.align 6
.global exc_entry
.weak exc_entry
exc_entry:
    /* Save the caller saving registers (context) */
    SAVE_CONTEXT
 8001a00:	34911173          	csrrw	sp,mscratchcswl,sp
 8001a04:	715d                	addi	sp,sp,-80
 8001a06:	c006                	sw	ra,0(sp)
 8001a08:	c212                	sw	tp,4(sp)
 8001a0a:	c416                	sw	t0,8(sp)
 8001a0c:	c61a                	sw	t1,12(sp)
 8001a0e:	c81e                	sw	t2,16(sp)
 8001a10:	ca2a                	sw	a0,20(sp)
 8001a12:	cc2e                	sw	a1,24(sp)
 8001a14:	ce32                	sw	a2,28(sp)
 8001a16:	d036                	sw	a3,32(sp)
 8001a18:	d23a                	sw	a4,36(sp)
 8001a1a:	d43e                	sw	a5,40(sp)
 8001a1c:	dc42                	sw	a6,56(sp)
 8001a1e:	de46                	sw	a7,60(sp)
 8001a20:	c0f2                	sw	t3,64(sp)
 8001a22:	c2f6                	sw	t4,68(sp)
 8001a24:	c4fa                	sw	t5,72(sp)
 8001a26:	c6fe                	sw	t6,76(sp)
 8001a28:	7ee5d073          	csrwi	pushmcause,11
 8001a2c:	7ef65073          	csrwi	pushmepc,12
 8001a30:	7eb6d073          	csrwi	pushmsubm,13
D:/work/WIFI_GD32VW/Github_GD32VW55x/MSDK/plf/riscv/env/entry.S:234
    SAVE_FCONTEXT
 8001a34:	fa810113          	addi	sp,sp,-88
 8001a38:	003022f3          	frcsr	t0
 8001a3c:	ca96                	sw	t0,84(sp)
 8001a3e:	e002                	fsw	ft0,0(sp)
 8001a40:	e206                	fsw	ft1,4(sp)
 8001a42:	e40a                	fsw	ft2,8(sp)
 8001a44:	e60e                	fsw	ft3,12(sp)
 8001a46:	e812                	fsw	ft4,16(sp)
 8001a48:	ea16                	fsw	ft5,20(sp)
 8001a4a:	ec1a                	fsw	ft6,24(sp)
 8001a4c:	ee1e                	fsw	ft7,28(sp)
 8001a4e:	f02a                	fsw	fa0,32(sp)
 8001a50:	f22e                	fsw	fa1,36(sp)
 8001a52:	f432                	fsw	fa2,40(sp)
 8001a54:	f636                	fsw	fa3,44(sp)
 8001a56:	f83a                	fsw	fa4,48(sp)
 8001a58:	fa3e                	fsw	fa5,52(sp)
 8001a5a:	fc42                	fsw	fa6,56(sp)
 8001a5c:	fe46                	fsw	fa7,60(sp)
 8001a5e:	e0f2                	fsw	ft8,64(sp)
 8001a60:	e2f6                	fsw	ft9,68(sp)
 8001a62:	e4fa                	fsw	ft10,72(sp)
 8001a64:	e6fe                	fsw	ft11,76(sp)
D:/work/WIFI_GD32VW/Github_GD32VW55x/MSDK/plf/riscv/env/entry.S:241
    /*
     * Set the exception handler function arguments
     * argument 1: mcause value
     * argument 2: current stack point(SP) value
     */
    csrr a0, mcause
 8001a66:	34202573          	csrr	a0,mcause
D:/work/WIFI_GD32VW/Github_GD32VW55x/MSDK/plf/riscv/env/entry.S:242
    mv a1, sp
 8001a6a:	858a                	mv	a1,sp
D:/work/WIFI_GD32VW/Github_GD32VW55x/MSDK/plf/riscv/env/entry.S:248
    /*
     * TODO: Call the exception handler function
     * By default, the function template is provided in
     * system_gd32vw55x.c, you can adjust it as you want
     */
    call core_exception_handler
 8001a6c:	257d                	jal	800211a <core_exception_handler>
D:/work/WIFI_GD32VW/Github_GD32VW55x/MSDK/plf/riscv/env/entry.S:250

    RESTORE_FCONTEXT
 8001a6e:	6002                	flw	ft0,0(sp)
 8001a70:	6092                	flw	ft1,4(sp)
 8001a72:	6122                	flw	ft2,8(sp)
 8001a74:	61b2                	flw	ft3,12(sp)
 8001a76:	6242                	flw	ft4,16(sp)
 8001a78:	62d2                	flw	ft5,20(sp)
 8001a7a:	6362                	flw	ft6,24(sp)
 8001a7c:	63f2                	flw	ft7,28(sp)
 8001a7e:	7502                	flw	fa0,32(sp)
 8001a80:	7592                	flw	fa1,36(sp)
 8001a82:	7622                	flw	fa2,40(sp)
 8001a84:	76b2                	flw	fa3,44(sp)
 8001a86:	7742                	flw	fa4,48(sp)
 8001a88:	77d2                	flw	fa5,52(sp)
 8001a8a:	7862                	flw	fa6,56(sp)
 8001a8c:	78f2                	flw	fa7,60(sp)
 8001a8e:	6e06                	flw	ft8,64(sp)
 8001a90:	6e96                	flw	ft9,68(sp)
 8001a92:	6f26                	flw	ft10,72(sp)
 8001a94:	6fb6                	flw	ft11,76(sp)
 8001a96:	42d6                	lw	t0,84(sp)
 8001a98:	00329073          	fscsr	t0
 8001a9c:	05810113          	addi	sp,sp,88
D:/work/WIFI_GD32VW/Github_GD32VW55x/MSDK/plf/riscv/env/entry.S:252
    /* Restore the caller saving registers (context) */
    RESTORE_CONTEXT
 8001aa0:	52d2                	lw	t0,52(sp)
 8001aa2:	7c429073          	csrw	msubm,t0
 8001aa6:	52c2                	lw	t0,48(sp)
 8001aa8:	34129073          	csrw	mepc,t0
 8001aac:	52b2                	lw	t0,44(sp)
 8001aae:	34229073          	csrw	mcause,t0
 8001ab2:	4082                	lw	ra,0(sp)
 8001ab4:	4212                	lw	tp,4(sp)
 8001ab6:	42a2                	lw	t0,8(sp)
 8001ab8:	4332                	lw	t1,12(sp)
 8001aba:	43c2                	lw	t2,16(sp)
 8001abc:	4552                	lw	a0,20(sp)
 8001abe:	45e2                	lw	a1,24(sp)
 8001ac0:	4672                	lw	a2,28(sp)
 8001ac2:	5682                	lw	a3,32(sp)
 8001ac4:	5712                	lw	a4,36(sp)
 8001ac6:	57a2                	lw	a5,40(sp)
 8001ac8:	5862                	lw	a6,56(sp)
 8001aca:	58f2                	lw	a7,60(sp)
 8001acc:	4e06                	lw	t3,64(sp)
 8001ace:	4e96                	lw	t4,68(sp)
 8001ad0:	4f26                	lw	t5,72(sp)
 8001ad2:	4fb6                	lw	t6,76(sp)
 8001ad4:	6161                	addi	sp,sp,80
 8001ad6:	34911173          	csrrw	sp,mscratchcswl,sp
D:/work/WIFI_GD32VW/Github_GD32VW55x/MSDK/plf/riscv/env/entry.S:255

    /* Return to regular code */
    mret
 8001ada:	30200073          	mret
	...

08001afc <irq_entry>:
irq_entry():
D:/work/WIFI_GD32VW/Github_GD32VW55x/MSDK/plf/riscv/env/entry.S:275
.global irq_entry
.weak irq_entry
/* This label will be set to MTVT2 register */
irq_entry:
    /* Save the caller saving registers (context) */
    SAVE_CONTEXT
 8001afc:	34911173          	csrrw	sp,mscratchcswl,sp
 8001b00:	715d                	addi	sp,sp,-80
 8001b02:	c006                	sw	ra,0(sp)
 8001b04:	c212                	sw	tp,4(sp)
 8001b06:	c416                	sw	t0,8(sp)
 8001b08:	c61a                	sw	t1,12(sp)
 8001b0a:	c81e                	sw	t2,16(sp)
 8001b0c:	ca2a                	sw	a0,20(sp)
 8001b0e:	cc2e                	sw	a1,24(sp)
 8001b10:	ce32                	sw	a2,28(sp)
 8001b12:	d036                	sw	a3,32(sp)
 8001b14:	d23a                	sw	a4,36(sp)
 8001b16:	d43e                	sw	a5,40(sp)
 8001b18:	dc42                	sw	a6,56(sp)
 8001b1a:	de46                	sw	a7,60(sp)
 8001b1c:	c0f2                	sw	t3,64(sp)
 8001b1e:	c2f6                	sw	t4,68(sp)
 8001b20:	c4fa                	sw	t5,72(sp)
 8001b22:	c6fe                	sw	t6,76(sp)
 8001b24:	7ee5d073          	csrwi	pushmcause,11
 8001b28:	7ef65073          	csrwi	pushmepc,12
 8001b2c:	7eb6d073          	csrwi	pushmsubm,13
D:/work/WIFI_GD32VW/Github_GD32VW55x/MSDK/plf/riscv/env/entry.S:278

    /* When mstatus->SD flag is set, the float register is dirty and need to be saved */
    csrr t0, CSR_MSTATUS
 8001b30:	300022f3          	csrr	t0,mstatus
D:/work/WIFI_GD32VW/Github_GD32VW55x/MSDK/plf/riscv/env/entry.S:279
    bgez t0, _no_save_float_register
 8001b34:	0a02d763          	bgez	t0,8001be2 <_no_save_float_register>
D:/work/WIFI_GD32VW/Github_GD32VW55x/MSDK/plf/riscv/env/entry.S:280
    SAVE_FCONTEXT
 8001b38:	fa810113          	addi	sp,sp,-88
 8001b3c:	003022f3          	frcsr	t0
 8001b40:	ca96                	sw	t0,84(sp)
 8001b42:	e002                	fsw	ft0,0(sp)
 8001b44:	e206                	fsw	ft1,4(sp)
 8001b46:	e40a                	fsw	ft2,8(sp)
 8001b48:	e60e                	fsw	ft3,12(sp)
 8001b4a:	e812                	fsw	ft4,16(sp)
 8001b4c:	ea16                	fsw	ft5,20(sp)
 8001b4e:	ec1a                	fsw	ft6,24(sp)
 8001b50:	ee1e                	fsw	ft7,28(sp)
 8001b52:	f02a                	fsw	fa0,32(sp)
 8001b54:	f22e                	fsw	fa1,36(sp)
 8001b56:	f432                	fsw	fa2,40(sp)
 8001b58:	f636                	fsw	fa3,44(sp)
 8001b5a:	f83a                	fsw	fa4,48(sp)
 8001b5c:	fa3e                	fsw	fa5,52(sp)
 8001b5e:	fc42                	fsw	fa6,56(sp)
 8001b60:	fe46                	fsw	fa7,60(sp)
 8001b62:	e0f2                	fsw	ft8,64(sp)
 8001b64:	e2f6                	fsw	ft9,68(sp)
 8001b66:	e4fa                	fsw	ft10,72(sp)
 8001b68:	e6fe                	fsw	ft11,76(sp)
D:/work/WIFI_GD32VW/Github_GD32VW55x/MSDK/plf/riscv/env/entry.S:287
    /* This special CSR read/write operation, which is actually
     * claim the CLIC to find its pending highest ID, if the ID
     * is not 0, then automatically enable the mstatus.MIE, and
     * jump to its vector-entry-label, and update the link register
     */
    csrrw ra, CSR_JALMNXTI, ra
 8001b6a:	7ed090f3          	csrrw	ra,jalmnxti,ra
D:/work/WIFI_GD32VW/Github_GD32VW55x/MSDK/plf/riscv/env/entry.S:290

    /* Critical section with interrupts disabled */
    DISABLE_MIE
 8001b6e:	30047073          	csrci	mstatus,8
D:/work/WIFI_GD32VW/Github_GD32VW55x/MSDK/plf/riscv/env/entry.S:292

    RESTORE_FCONTEXT
 8001b72:	6002                	flw	ft0,0(sp)
 8001b74:	6092                	flw	ft1,4(sp)
 8001b76:	6122                	flw	ft2,8(sp)
 8001b78:	61b2                	flw	ft3,12(sp)
 8001b7a:	6242                	flw	ft4,16(sp)
 8001b7c:	62d2                	flw	ft5,20(sp)
 8001b7e:	6362                	flw	ft6,24(sp)
 8001b80:	63f2                	flw	ft7,28(sp)
 8001b82:	7502                	flw	fa0,32(sp)
 8001b84:	7592                	flw	fa1,36(sp)
 8001b86:	7622                	flw	fa2,40(sp)
 8001b88:	76b2                	flw	fa3,44(sp)
 8001b8a:	7742                	flw	fa4,48(sp)
 8001b8c:	77d2                	flw	fa5,52(sp)
 8001b8e:	7862                	flw	fa6,56(sp)
 8001b90:	78f2                	flw	fa7,60(sp)
 8001b92:	6e06                	flw	ft8,64(sp)
 8001b94:	6e96                	flw	ft9,68(sp)
 8001b96:	6f26                	flw	ft10,72(sp)
 8001b98:	6fb6                	flw	ft11,76(sp)
 8001b9a:	42d6                	lw	t0,84(sp)
 8001b9c:	00329073          	fscsr	t0
 8001ba0:	05810113          	addi	sp,sp,88
D:/work/WIFI_GD32VW/Github_GD32VW55x/MSDK/plf/riscv/env/entry.S:294
    /* Restore the caller saving registers (context) */
    RESTORE_CONTEXT
 8001ba4:	52d2                	lw	t0,52(sp)
 8001ba6:	7c429073          	csrw	msubm,t0
 8001baa:	52c2                	lw	t0,48(sp)
 8001bac:	34129073          	csrw	mepc,t0
 8001bb0:	52b2                	lw	t0,44(sp)
 8001bb2:	34229073          	csrw	mcause,t0
 8001bb6:	4082                	lw	ra,0(sp)
 8001bb8:	4212                	lw	tp,4(sp)
 8001bba:	42a2                	lw	t0,8(sp)
 8001bbc:	4332                	lw	t1,12(sp)
 8001bbe:	43c2                	lw	t2,16(sp)
 8001bc0:	4552                	lw	a0,20(sp)
 8001bc2:	45e2                	lw	a1,24(sp)
 8001bc4:	4672                	lw	a2,28(sp)
 8001bc6:	5682                	lw	a3,32(sp)
 8001bc8:	5712                	lw	a4,36(sp)
 8001bca:	57a2                	lw	a5,40(sp)
 8001bcc:	5862                	lw	a6,56(sp)
 8001bce:	58f2                	lw	a7,60(sp)
 8001bd0:	4e06                	lw	t3,64(sp)
 8001bd2:	4e96                	lw	t4,68(sp)
 8001bd4:	4f26                	lw	t5,72(sp)
 8001bd6:	4fb6                	lw	t6,76(sp)
 8001bd8:	6161                	addi	sp,sp,80
 8001bda:	34911173          	csrrw	sp,mscratchcswl,sp
D:/work/WIFI_GD32VW/Github_GD32VW55x/MSDK/plf/riscv/env/entry.S:297

    /* Return to regular code */
    mret
 8001bde:	30200073          	mret

08001be2 <_no_save_float_register>:
_no_save_float_register():
D:/work/WIFI_GD32VW/Github_GD32VW55x/MSDK/plf/riscv/env/entry.S:302

_no_save_float_register:
#ifdef __riscv_flen
    /* The stack size is fixed for problem locating */
    addi sp, sp, -portFCONTEXT_SIZE
 8001be2:	fa810113          	addi	sp,sp,-88
D:/work/WIFI_GD32VW/Github_GD32VW55x/MSDK/plf/riscv/env/entry.S:310
    /* This special CSR read/write operation, which is actually
     * claim the CLIC to find its pending highest ID, if the ID
     * is not 0, then automatically enable the mstatus.MIE, and
     * jump to its vector-entry-label, and update the link register
     */
    csrrw ra, CSR_JALMNXTI, ra
 8001be6:	7ed090f3          	csrrw	ra,jalmnxti,ra
D:/work/WIFI_GD32VW/Github_GD32VW55x/MSDK/plf/riscv/env/entry.S:313

    /* Critical section with interrupts disabled */
    DISABLE_MIE
 8001bea:	30047073          	csrci	mstatus,8
D:/work/WIFI_GD32VW/Github_GD32VW55x/MSDK/plf/riscv/env/entry.S:316

#ifdef __riscv_flen
    addi sp, sp, portFCONTEXT_SIZE
 8001bee:	05810113          	addi	sp,sp,88
D:/work/WIFI_GD32VW/Github_GD32VW55x/MSDK/plf/riscv/env/entry.S:319
#endif
    /* Restore the caller saving registers (context) */
    RESTORE_CONTEXT
 8001bf2:	52d2                	lw	t0,52(sp)
 8001bf4:	7c429073          	csrw	msubm,t0
 8001bf8:	52c2                	lw	t0,48(sp)
 8001bfa:	34129073          	csrw	mepc,t0
 8001bfe:	52b2                	lw	t0,44(sp)
 8001c00:	34229073          	csrw	mcause,t0
 8001c04:	4082                	lw	ra,0(sp)
 8001c06:	4212                	lw	tp,4(sp)
 8001c08:	42a2                	lw	t0,8(sp)
 8001c0a:	4332                	lw	t1,12(sp)
 8001c0c:	43c2                	lw	t2,16(sp)
 8001c0e:	4552                	lw	a0,20(sp)
 8001c10:	45e2                	lw	a1,24(sp)
 8001c12:	4672                	lw	a2,28(sp)
 8001c14:	5682                	lw	a3,32(sp)
 8001c16:	5712                	lw	a4,36(sp)
 8001c18:	57a2                	lw	a5,40(sp)
 8001c1a:	5862                	lw	a6,56(sp)
 8001c1c:	58f2                	lw	a7,60(sp)
 8001c1e:	4e06                	lw	t3,64(sp)
 8001c20:	4e96                	lw	t4,68(sp)
 8001c22:	4f26                	lw	t5,72(sp)
 8001c24:	4fb6                	lw	t6,76(sp)
 8001c26:	6161                	addi	sp,sp,80
 8001c28:	34911173          	csrrw	sp,mscratchcswl,sp
D:/work/WIFI_GD32VW/Github_GD32VW55x/MSDK/plf/riscv/env/entry.S:322

    /* Return to regular code */
    mret
 8001c2c:	30200073          	mret

08001c30 <default_intexc_handler>:
Undef_Handler():
D:/work/WIFI_GD32VW/Github_GD32VW55x/MSDK/plf/riscv/env/entry.S:330
.global default_intexc_handler
.weak default_intexc_handler
Undef_Handler:
default_intexc_handler:
1:
    j 1b
 8001c30:	a001                	j	8001c30 <default_intexc_handler>

08001c32 <eclic_global_interrupt_enable>:
__enable_irq():
D:\work\WIFI_GD32VW\Github_GD32VW55x\MBL\project\eclipse\Debug/../../../../MSDK/plf/riscv/NMSIS/Core/Include/core_feature_base.h:598
 * \remarks
 *          Can only be executed in Privileged modes.
 */
__STATIC_FORCEINLINE void __enable_irq(void)
{
    __RV_CSR_SET(CSR_MSTATUS, MSTATUS_MIE);
 8001c32:	47a1                	li	a5,8
 8001c34:	3007a073          	csrs	mstatus,a5
eclic_global_interrupt_enable():
D:/work/WIFI_GD32VW/Github_GD32VW55x/MSDK/plf/GD32VW55x_standard_peripheral/Source/gd32vw55x_eclic.c:47
    \retval     none
*/
void eclic_global_interrupt_enable(void)
{
    __enable_irq();
}
 8001c38:	8082                	ret

08001c3a <eclic_level_threshold_set>:
__ECLIC_SetMth():
D:\work\WIFI_GD32VW\Github_GD32VW55x\MBL\project\eclipse\Debug/../../../../MSDK/plf/riscv/NMSIS/Core/Include/core_feature_eclic.h:338
 * \sa
 * - \ref ECLIC_GetMth
 */
__STATIC_FORCEINLINE void __ECLIC_SetMth(uint8_t mth)
{
    ECLIC->MTH = mth;
 8001c3a:	d20007b7          	lui	a5,0xd2000
 8001c3e:	00a785a3          	sb	a0,11(a5) # d200000b <_sp+0xb1ffb70b>
eclic_level_threshold_set():
D:/work/WIFI_GD32VW/Github_GD32VW55x/MSDK/plf/GD32VW55x_standard_peripheral/Source/gd32vw55x_eclic.c:69
    \retval     none
*/
void eclic_level_threshold_set(uint8_t threshold)
{
    ECLIC_SetMth(threshold);
}
 8001c42:	8082                	ret

08001c44 <eclic_priority_group_set>:
__ECLIC_SetCfgNlbits():
D:\work\WIFI_GD32VW\Github_GD32VW55x\MBL\project\eclipse\Debug/../../../../MSDK/plf/riscv/NMSIS/Core/Include/core_feature_eclic.h:260
    ECLIC->CFG &= ~CLIC_CLICCFG_NLBIT_Msk;
 8001c44:	d20007b7          	lui	a5,0xd2000
 8001c48:	0007c703          	lbu	a4,0(a5) # d2000000 <_sp+0xb1ffb700>
D:\work\WIFI_GD32VW\Github_GD32VW55x\MBL\project\eclipse\Debug/../../../../MSDK/plf/riscv/NMSIS/Core/Include/core_feature_eclic.h:261
    ECLIC->CFG |= (uint8_t)((nlbits <<CLIC_CLICCFG_NLBIT_Pos) & CLIC_CLICCFG_NLBIT_Msk);
 8001c4c:	0506                	slli	a0,a0,0x1
 8001c4e:	8979                	andi	a0,a0,30
D:\work\WIFI_GD32VW\Github_GD32VW55x\MBL\project\eclipse\Debug/../../../../MSDK/plf/riscv/NMSIS/Core/Include/core_feature_eclic.h:260
    ECLIC->CFG &= ~CLIC_CLICCFG_NLBIT_Msk;
 8001c50:	0e177713          	andi	a4,a4,225
 8001c54:	00e78023          	sb	a4,0(a5)
D:\work\WIFI_GD32VW\Github_GD32VW55x\MBL\project\eclipse\Debug/../../../../MSDK/plf/riscv/NMSIS/Core/Include/core_feature_eclic.h:261
    ECLIC->CFG |= (uint8_t)((nlbits <<CLIC_CLICCFG_NLBIT_Pos) & CLIC_CLICCFG_NLBIT_Msk);
 8001c58:	0007c703          	lbu	a4,0(a5)
 8001c5c:	0ff77713          	zext.b	a4,a4
 8001c60:	8d59                	or	a0,a0,a4
 8001c62:	00a78023          	sb	a0,0(a5)
eclic_priority_group_set():
D:/work/WIFI_GD32VW/Github_GD32VW55x/MSDK/plf/GD32VW55x_standard_peripheral/Source/gd32vw55x_eclic.c:85
    \retval     none
*/
void eclic_priority_group_set(uint8_t prigroup)
{
    ECLIC_SetCfgNlbits(prigroup);
}
 8001c66:	8082                	ret

08001c68 <fmc_unlock>:
fmc_unlock():
D:/work/WIFI_GD32VW/Github_GD32VW55x/MSDK/plf/GD32VW55x_standard_peripheral/Source/gd32vw55x_fmc.c:56
    \param[out] none
    \retval     none
*/
void fmc_unlock(void)
{
    if(RESET != (FMC_CTL & FMC_CTL_LK)){
 8001c68:	40022737          	lui	a4,0x40022
 8001c6c:	4b1c                	lw	a5,16(a4)
 8001c6e:	0807f793          	andi	a5,a5,128
 8001c72:	cb99                	beqz	a5,8001c88 <fmc_unlock+0x20>
D:/work/WIFI_GD32VW/Github_GD32VW55x/MSDK/plf/GD32VW55x_standard_peripheral/Source/gd32vw55x_fmc.c:58
        /* write the FMC unlock key */
        FMC_KEY = UNLOCK_KEY0;
 8001c74:	456707b7          	lui	a5,0x45670
 8001c78:	12378793          	addi	a5,a5,291 # 45670123 <_sp+0x2566b823>
 8001c7c:	c35c                	sw	a5,4(a4)
D:/work/WIFI_GD32VW/Github_GD32VW55x/MSDK/plf/GD32VW55x_standard_peripheral/Source/gd32vw55x_fmc.c:59
        FMC_KEY = UNLOCK_KEY1;
 8001c7e:	cdef97b7          	lui	a5,0xcdef9
 8001c82:	9ab78793          	addi	a5,a5,-1621 # cdef89ab <_sp+0xadef40ab>
 8001c86:	c35c                	sw	a5,4(a4)
D:/work/WIFI_GD32VW/Github_GD32VW55x/MSDK/plf/GD32VW55x_standard_peripheral/Source/gd32vw55x_fmc.c:61
    }
}
 8001c88:	8082                	ret

08001c8a <fmc_lock>:
fmc_lock():
D:/work/WIFI_GD32VW/Github_GD32VW55x/MSDK/plf/GD32VW55x_standard_peripheral/Source/gd32vw55x_fmc.c:73
    \retval     none
*/
void fmc_lock(void)
{
    /* set the LK bit */
    FMC_CTL |= FMC_CTL_LK;
 8001c8a:	40022737          	lui	a4,0x40022
 8001c8e:	4b1c                	lw	a5,16(a4)
 8001c90:	0807e793          	ori	a5,a5,128
 8001c94:	cb1c                	sw	a5,16(a4)
D:/work/WIFI_GD32VW/Github_GD32VW55x/MSDK/plf/GD32VW55x_standard_peripheral/Source/gd32vw55x_fmc.c:74
}
 8001c96:	8082                	ret

08001c98 <ob_unlock>:
ob_unlock():
D:/work/WIFI_GD32VW/Github_GD32VW55x/MSDK/plf/GD32VW55x_standard_peripheral/Source/gd32vw55x_fmc.c:245
    \param[out] none
    \retval     none
*/
void ob_unlock(void)
{
    if (RESET == (FMC_CTL & FMC_CTL_OBWEN)){
 8001c98:	40022737          	lui	a4,0x40022
 8001c9c:	4b1c                	lw	a5,16(a4)
 8001c9e:	2007f793          	andi	a5,a5,512
 8001ca2:	eb99                	bnez	a5,8001cb8 <ob_unlock+0x20>
D:/work/WIFI_GD32VW/Github_GD32VW55x/MSDK/plf/GD32VW55x_standard_peripheral/Source/gd32vw55x_fmc.c:247
        /* write the FMC ob unlock key */
        FMC_OBKEY = UNLOCK_KEY0;
 8001ca4:	456707b7          	lui	a5,0x45670
 8001ca8:	12378793          	addi	a5,a5,291 # 45670123 <_sp+0x2566b823>
 8001cac:	c71c                	sw	a5,8(a4)
D:/work/WIFI_GD32VW/Github_GD32VW55x/MSDK/plf/GD32VW55x_standard_peripheral/Source/gd32vw55x_fmc.c:248
        FMC_OBKEY = UNLOCK_KEY1;
 8001cae:	cdef97b7          	lui	a5,0xcdef9
 8001cb2:	9ab78793          	addi	a5,a5,-1621 # cdef89ab <_sp+0xadef40ab>
 8001cb6:	c71c                	sw	a5,8(a4)
D:/work/WIFI_GD32VW/Github_GD32VW55x/MSDK/plf/GD32VW55x_standard_peripheral/Source/gd32vw55x_fmc.c:250
    }
}
 8001cb8:	8082                	ret

08001cba <ob_lock>:
ob_lock():
D:/work/WIFI_GD32VW/Github_GD32VW55x/MSDK/plf/GD32VW55x_standard_peripheral/Source/gd32vw55x_fmc.c:262
    \retval     none
*/
void ob_lock(void)
{
    /* reset the OBWEN bit */
    FMC_CTL &= ~FMC_CTL_OBWEN;
 8001cba:	40022737          	lui	a4,0x40022
 8001cbe:	4b1c                	lw	a5,16(a4)
 8001cc0:	dff7f793          	andi	a5,a5,-513
 8001cc4:	cb1c                	sw	a5,16(a4)
D:/work/WIFI_GD32VW/Github_GD32VW55x/MSDK/plf/GD32VW55x_standard_peripheral/Source/gd32vw55x_fmc.c:263
}
 8001cc6:	8082                	ret

08001cc8 <fmc_offset_region_config>:
fmc_offset_region_config():
D:/work/WIFI_GD32VW/Github_GD32VW55x/MSDK/plf/GD32VW55x_standard_peripheral/Source/gd32vw55x_fmc.c:438
    \param[out] none
    \retval     none
*/
void fmc_offset_region_config(uint32_t of_spage, uint32_t of_epage)
{
    FMC_OFRG = 0U;
 8001cc8:	400227b7          	lui	a5,0x40022
 8001ccc:	0807a023          	sw	zero,128(a5) # 40022080 <_sp+0x2001d780>
D:/work/WIFI_GD32VW/Github_GD32VW55x/MSDK/plf/GD32VW55x_standard_peripheral/Source/gd32vw55x_fmc.c:439
    FMC_OFRG |= (uint32_t) (of_spage);
 8001cd0:	0807a703          	lw	a4,128(a5)
D:/work/WIFI_GD32VW/Github_GD32VW55x/MSDK/plf/GD32VW55x_standard_peripheral/Source/gd32vw55x_fmc.c:440
    FMC_OFRG |= (uint32_t) (of_epage << FMC_EPAGE_OFFSET);
 8001cd4:	05c2                	slli	a1,a1,0x10
D:/work/WIFI_GD32VW/Github_GD32VW55x/MSDK/plf/GD32VW55x_standard_peripheral/Source/gd32vw55x_fmc.c:439
    FMC_OFRG |= (uint32_t) (of_spage);
 8001cd6:	8f49                	or	a4,a4,a0
 8001cd8:	08e7a023          	sw	a4,128(a5)
D:/work/WIFI_GD32VW/Github_GD32VW55x/MSDK/plf/GD32VW55x_standard_peripheral/Source/gd32vw55x_fmc.c:440
    FMC_OFRG |= (uint32_t) (of_epage << FMC_EPAGE_OFFSET);
 8001cdc:	0807a703          	lw	a4,128(a5)
 8001ce0:	8dd9                	or	a1,a1,a4
 8001ce2:	08b7a023          	sw	a1,128(a5)
D:/work/WIFI_GD32VW/Github_GD32VW55x/MSDK/plf/GD32VW55x_standard_peripheral/Source/gd32vw55x_fmc.c:441
}
 8001ce6:	8082                	ret

08001ce8 <fmc_offset_value_config>:
fmc_offset_value_config():
D:/work/WIFI_GD32VW/Github_GD32VW55x/MSDK/plf/GD32VW55x_standard_peripheral/Source/gd32vw55x_fmc.c:451
    \param[out] none
    \retval     none
*/
void fmc_offset_value_config(uint32_t of_value)
{
    FMC_OFVR = 0U;
 8001ce8:	400227b7          	lui	a5,0x40022
 8001cec:	0807a223          	sw	zero,132(a5) # 40022084 <_sp+0x2001d784>
D:/work/WIFI_GD32VW/Github_GD32VW55x/MSDK/plf/GD32VW55x_standard_peripheral/Source/gd32vw55x_fmc.c:452
    FMC_OFVR |= (uint32_t) (of_value);
 8001cf0:	0847a703          	lw	a4,132(a5)
 8001cf4:	8f49                	or	a4,a4,a0
 8001cf6:	08e7a223          	sw	a4,132(a5)
D:/work/WIFI_GD32VW/Github_GD32VW55x/MSDK/plf/GD32VW55x_standard_peripheral/Source/gd32vw55x_fmc.c:453
}
 8001cfa:	8082                	ret

08001cfc <gpio_mode_set>:
gpio_mode_set():
D:/work/WIFI_GD32VW/Github_GD32VW55x/MSDK/plf/GD32VW55x_standard_peripheral/Source/gd32vw55x_gpio.c:95
void gpio_mode_set(uint32_t gpio_periph, uint32_t mode, uint32_t pull_up_down, uint32_t pin)
{
    uint16_t i;
    uint32_t ctl, pupd;

    ctl = GPIO_CTL(gpio_periph);
 8001cfc:	00052e03          	lw	t3,0(a0) # 40011000 <_sp+0x2000c700>
D:/work/WIFI_GD32VW/Github_GD32VW55x/MSDK/plf/GD32VW55x_standard_peripheral/Source/gd32vw55x_gpio.c:96
    pupd = GPIO_PUD(gpio_periph);
 8001d00:	00c52303          	lw	t1,12(a0)
 8001d04:	4801                	li	a6,0
D:/work/WIFI_GD32VW/Github_GD32VW55x/MSDK/plf/GD32VW55x_standard_peripheral/Source/gd32vw55x_gpio.c:101

    for(i = 0U; i < 16U; i++) {
        if((1U << i) & pin) {
            /* clear the specified pin mode bits */
            ctl &= ~GPIO_MODE_MASK(i);
 8001d06:	428d                	li	t0,3
D:/work/WIFI_GD32VW/Github_GD32VW55x/MSDK/plf/GD32VW55x_standard_peripheral/Source/gd32vw55x_gpio.c:98
    for(i = 0U; i < 16U; i++) {
 8001d08:	4fc1                	li	t6,16
D:/work/WIFI_GD32VW/Github_GD32VW55x/MSDK/plf/GD32VW55x_standard_peripheral/Source/gd32vw55x_gpio.c:101
            ctl &= ~GPIO_MODE_MASK(i);
 8001d0a:	00181713          	slli	a4,a6,0x1
 8001d0e:	00e297b3          	sll	a5,t0,a4
 8001d12:	fff7c793          	not	a5,a5
D:/work/WIFI_GD32VW/Github_GD32VW55x/MSDK/plf/GD32VW55x_standard_peripheral/Source/gd32vw55x_gpio.c:99
        if((1U << i) & pin) {
 8001d16:	290018b3          	bset	a7,zero,a6
 8001d1a:	00d8f8b3          	and	a7,a7,a3
D:/work/WIFI_GD32VW/Github_GD32VW55x/MSDK/plf/GD32VW55x_standard_peripheral/Source/gd32vw55x_gpio.c:101
            ctl &= ~GPIO_MODE_MASK(i);
 8001d1e:	01c7feb3          	and	t4,a5,t3
D:/work/WIFI_GD32VW/Github_GD32VW55x/MSDK/plf/GD32VW55x_standard_peripheral/Source/gd32vw55x_gpio.c:103
            /* set the specified pin mode bits */
            ctl |= GPIO_MODE_SET(i, mode);
 8001d22:	00e59f33          	sll	t5,a1,a4
D:/work/WIFI_GD32VW/Github_GD32VW55x/MSDK/plf/GD32VW55x_standard_peripheral/Source/gd32vw55x_gpio.c:98
    for(i = 0U; i < 16U; i++) {
 8001d26:	0805                	addi	a6,a6,1
D:/work/WIFI_GD32VW/Github_GD32VW55x/MSDK/plf/GD32VW55x_standard_peripheral/Source/gd32vw55x_gpio.c:106

            /* clear the specified pin pupd bits */
            pupd &= ~GPIO_PUPD_MASK(i);
 8001d28:	0067f7b3          	and	a5,a5,t1
D:/work/WIFI_GD32VW/Github_GD32VW55x/MSDK/plf/GD32VW55x_standard_peripheral/Source/gd32vw55x_gpio.c:108
            /* set the specified pin pupd bits */
            pupd |= GPIO_PUPD_SET(i, pull_up_down);
 8001d2c:	00e61733          	sll	a4,a2,a4
D:/work/WIFI_GD32VW/Github_GD32VW55x/MSDK/plf/GD32VW55x_standard_peripheral/Source/gd32vw55x_gpio.c:99
        if((1U << i) & pin) {
 8001d30:	00088663          	beqz	a7,8001d3c <gpio_mode_set+0x40>
D:/work/WIFI_GD32VW/Github_GD32VW55x/MSDK/plf/GD32VW55x_standard_peripheral/Source/gd32vw55x_gpio.c:103
            ctl |= GPIO_MODE_SET(i, mode);
 8001d34:	01df6e33          	or	t3,t5,t4
D:/work/WIFI_GD32VW/Github_GD32VW55x/MSDK/plf/GD32VW55x_standard_peripheral/Source/gd32vw55x_gpio.c:108
            pupd |= GPIO_PUPD_SET(i, pull_up_down);
 8001d38:	00f76333          	or	t1,a4,a5
D:/work/WIFI_GD32VW/Github_GD32VW55x/MSDK/plf/GD32VW55x_standard_peripheral/Source/gd32vw55x_gpio.c:98 (discriminator 2)
    for(i = 0U; i < 16U; i++) {
 8001d3c:	fdf817e3          	bne	a6,t6,8001d0a <gpio_mode_set+0xe>
D:/work/WIFI_GD32VW/Github_GD32VW55x/MSDK/plf/GD32VW55x_standard_peripheral/Source/gd32vw55x_gpio.c:112
        }
    }

    GPIO_CTL(gpio_periph) = ctl;
 8001d40:	01c52023          	sw	t3,0(a0)
D:/work/WIFI_GD32VW/Github_GD32VW55x/MSDK/plf/GD32VW55x_standard_peripheral/Source/gd32vw55x_gpio.c:113
    GPIO_PUD(gpio_periph) = pupd;
 8001d44:	00652623          	sw	t1,12(a0)
D:/work/WIFI_GD32VW/Github_GD32VW55x/MSDK/plf/GD32VW55x_standard_peripheral/Source/gd32vw55x_gpio.c:114
}
 8001d48:	8082                	ret

08001d4a <gpio_output_options_set>:
gpio_output_options_set():
D:/work/WIFI_GD32VW/Github_GD32VW55x/MSDK/plf/GD32VW55x_standard_peripheral/Source/gd32vw55x_gpio.c:142
void gpio_output_options_set(uint32_t gpio_periph, uint8_t otype, uint32_t speed, uint32_t pin)
{
    uint16_t i;
    uint32_t ospeed;

    if(GPIO_OTYPE_OD == otype) {
 8001d4a:	4785                	li	a5,1
 8001d4c:	02f58f63          	beq	a1,a5,8001d8a <gpio_output_options_set+0x40>
D:/work/WIFI_GD32VW/Github_GD32VW55x/MSDK/plf/GD32VW55x_standard_peripheral/Source/gd32vw55x_gpio.c:145
        GPIO_OMODE(gpio_periph) |= (uint32_t)pin;
    } else {
        GPIO_OMODE(gpio_periph) &= (uint32_t)(~pin);
 8001d50:	415c                	lw	a5,4(a0)
 8001d52:	40d7f7b3          	andn	a5,a5,a3
 8001d56:	c15c                	sw	a5,4(a0)
D:/work/WIFI_GD32VW/Github_GD32VW55x/MSDK/plf/GD32VW55x_standard_peripheral/Source/gd32vw55x_gpio.c:149
    }

    /* get the specified pin output speed bits value */
    ospeed = GPIO_OSPD(gpio_periph);
 8001d58:	00852803          	lw	a6,8(a0)
 8001d5c:	4781                	li	a5,0
D:/work/WIFI_GD32VW/Github_GD32VW55x/MSDK/plf/GD32VW55x_standard_peripheral/Source/gd32vw55x_gpio.c:154

    for(i = 0U; i < 16U; i++) {
        if((1U << i) & pin) {
            /* clear the specified pin output speed bits */
            ospeed &= ~GPIO_OSPEED_MASK(i);
 8001d5e:	4e0d                	li	t3,3
D:/work/WIFI_GD32VW/Github_GD32VW55x/MSDK/plf/GD32VW55x_standard_peripheral/Source/gd32vw55x_gpio.c:151
    for(i = 0U; i < 16U; i++) {
 8001d60:	4341                	li	t1,16
D:/work/WIFI_GD32VW/Github_GD32VW55x/MSDK/plf/GD32VW55x_standard_peripheral/Source/gd32vw55x_gpio.c:154
            ospeed &= ~GPIO_OSPEED_MASK(i);
 8001d62:	00179713          	slli	a4,a5,0x1
D:/work/WIFI_GD32VW/Github_GD32VW55x/MSDK/plf/GD32VW55x_standard_peripheral/Source/gd32vw55x_gpio.c:152
        if((1U << i) & pin) {
 8001d66:	28f015b3          	bset	a1,zero,a5
 8001d6a:	8df5                	and	a1,a1,a3
D:/work/WIFI_GD32VW/Github_GD32VW55x/MSDK/plf/GD32VW55x_standard_peripheral/Source/gd32vw55x_gpio.c:154
            ospeed &= ~GPIO_OSPEED_MASK(i);
 8001d6c:	00ee18b3          	sll	a7,t3,a4
D:/work/WIFI_GD32VW/Github_GD32VW55x/MSDK/plf/GD32VW55x_standard_peripheral/Source/gd32vw55x_gpio.c:151
    for(i = 0U; i < 16U; i++) {
 8001d70:	0785                	addi	a5,a5,1
D:/work/WIFI_GD32VW/Github_GD32VW55x/MSDK/plf/GD32VW55x_standard_peripheral/Source/gd32vw55x_gpio.c:156
            /* set the specified pin output speed bits */
            ospeed |= GPIO_OSPEED_SET(i, speed);
 8001d72:	00e61733          	sll	a4,a2,a4
D:/work/WIFI_GD32VW/Github_GD32VW55x/MSDK/plf/GD32VW55x_standard_peripheral/Source/gd32vw55x_gpio.c:152
        if((1U << i) & pin) {
 8001d76:	c589                	beqz	a1,8001d80 <gpio_output_options_set+0x36>
D:/work/WIFI_GD32VW/Github_GD32VW55x/MSDK/plf/GD32VW55x_standard_peripheral/Source/gd32vw55x_gpio.c:154
            ospeed &= ~GPIO_OSPEED_MASK(i);
 8001d78:	41187833          	andn	a6,a6,a7
D:/work/WIFI_GD32VW/Github_GD32VW55x/MSDK/plf/GD32VW55x_standard_peripheral/Source/gd32vw55x_gpio.c:156
            ospeed |= GPIO_OSPEED_SET(i, speed);
 8001d7c:	01076833          	or	a6,a4,a6
D:/work/WIFI_GD32VW/Github_GD32VW55x/MSDK/plf/GD32VW55x_standard_peripheral/Source/gd32vw55x_gpio.c:151 (discriminator 2)
    for(i = 0U; i < 16U; i++) {
 8001d80:	fe6791e3          	bne	a5,t1,8001d62 <gpio_output_options_set+0x18>
D:/work/WIFI_GD32VW/Github_GD32VW55x/MSDK/plf/GD32VW55x_standard_peripheral/Source/gd32vw55x_gpio.c:160
        }
    }

    GPIO_OSPD(gpio_periph) = ospeed;
 8001d84:	01052423          	sw	a6,8(a0)
D:/work/WIFI_GD32VW/Github_GD32VW55x/MSDK/plf/GD32VW55x_standard_peripheral/Source/gd32vw55x_gpio.c:161
}
 8001d88:	8082                	ret
D:/work/WIFI_GD32VW/Github_GD32VW55x/MSDK/plf/GD32VW55x_standard_peripheral/Source/gd32vw55x_gpio.c:143
        GPIO_OMODE(gpio_periph) |= (uint32_t)pin;
 8001d8a:	415c                	lw	a5,4(a0)
 8001d8c:	8fd5                	or	a5,a5,a3
 8001d8e:	c15c                	sw	a5,4(a0)
 8001d90:	b7e1                	j	8001d58 <gpio_output_options_set+0xe>

08001d92 <gpio_af_set>:
gpio_af_set():
D:/work/WIFI_GD32VW/Github_GD32VW55x/MSDK/plf/GD32VW55x_standard_peripheral/Source/gd32vw55x_gpio.c:329
void gpio_af_set(uint32_t gpio_periph, uint32_t alt_func_num, uint32_t pin)
{
    uint16_t i;
    uint32_t afrl, afrh;

    afrl = GPIO_AFSEL0(gpio_periph);
 8001d92:	02052883          	lw	a7,32(a0)
D:/work/WIFI_GD32VW/Github_GD32VW55x/MSDK/plf/GD32VW55x_standard_peripheral/Source/gd32vw55x_gpio.c:330
    afrh = GPIO_AFSEL1(gpio_periph);
 8001d96:	02452803          	lw	a6,36(a0)
 8001d9a:	4781                	li	a5,0
D:/work/WIFI_GD32VW/Github_GD32VW55x/MSDK/plf/GD32VW55x_standard_peripheral/Source/gd32vw55x_gpio.c:335

    for(i = 0U; i < 8U; i++) {
        if((1U << i) & pin) {
            /* clear the specified pin alternate function bits */
            afrl &= ~GPIO_AFR_MASK(i);
 8001d9c:	4ebd                	li	t4,15
D:/work/WIFI_GD32VW/Github_GD32VW55x/MSDK/plf/GD32VW55x_standard_peripheral/Source/gd32vw55x_gpio.c:332
    for(i = 0U; i < 8U; i++) {
 8001d9e:	4e21                	li	t3,8
D:/work/WIFI_GD32VW/Github_GD32VW55x/MSDK/plf/GD32VW55x_standard_peripheral/Source/gd32vw55x_gpio.c:335
            afrl &= ~GPIO_AFR_MASK(i);
 8001da0:	00279713          	slli	a4,a5,0x2
D:/work/WIFI_GD32VW/Github_GD32VW55x/MSDK/plf/GD32VW55x_standard_peripheral/Source/gd32vw55x_gpio.c:333
        if((1U << i) & pin) {
 8001da4:	28f016b3          	bset	a3,zero,a5
 8001da8:	8ef1                	and	a3,a3,a2
D:/work/WIFI_GD32VW/Github_GD32VW55x/MSDK/plf/GD32VW55x_standard_peripheral/Source/gd32vw55x_gpio.c:335
            afrl &= ~GPIO_AFR_MASK(i);
 8001daa:	00ee9333          	sll	t1,t4,a4
D:/work/WIFI_GD32VW/Github_GD32VW55x/MSDK/plf/GD32VW55x_standard_peripheral/Source/gd32vw55x_gpio.c:332
    for(i = 0U; i < 8U; i++) {
 8001dae:	0785                	addi	a5,a5,1
D:/work/WIFI_GD32VW/Github_GD32VW55x/MSDK/plf/GD32VW55x_standard_peripheral/Source/gd32vw55x_gpio.c:336
            afrl |= GPIO_AFR_SET(i, alt_func_num);
 8001db0:	00e59733          	sll	a4,a1,a4
D:/work/WIFI_GD32VW/Github_GD32VW55x/MSDK/plf/GD32VW55x_standard_peripheral/Source/gd32vw55x_gpio.c:333
        if((1U << i) & pin) {
 8001db4:	c689                	beqz	a3,8001dbe <gpio_af_set+0x2c>
D:/work/WIFI_GD32VW/Github_GD32VW55x/MSDK/plf/GD32VW55x_standard_peripheral/Source/gd32vw55x_gpio.c:335
            afrl &= ~GPIO_AFR_MASK(i);
 8001db6:	4068f8b3          	andn	a7,a7,t1
D:/work/WIFI_GD32VW/Github_GD32VW55x/MSDK/plf/GD32VW55x_standard_peripheral/Source/gd32vw55x_gpio.c:336
            afrl |= GPIO_AFR_SET(i, alt_func_num);
 8001dba:	011768b3          	or	a7,a4,a7
D:/work/WIFI_GD32VW/Github_GD32VW55x/MSDK/plf/GD32VW55x_standard_peripheral/Source/gd32vw55x_gpio.c:332 (discriminator 2)
    for(i = 0U; i < 8U; i++) {
 8001dbe:	ffc791e3          	bne	a5,t3,8001da0 <gpio_af_set+0xe>
 8001dc2:	4701                	li	a4,0
D:/work/WIFI_GD32VW/Github_GD32VW55x/MSDK/plf/GD32VW55x_standard_peripheral/Source/gd32vw55x_gpio.c:343
    }

    for(i = 8U; i < 16U; i++) {
        if((1U << i) & pin) {
            /* clear the specified pin alternate function bits */
            afrh &= ~GPIO_AFR_MASK(i - 8U);
 8001dc4:	4f3d                	li	t5,15
D:/work/WIFI_GD32VW/Github_GD32VW55x/MSDK/plf/GD32VW55x_standard_peripheral/Source/gd32vw55x_gpio.c:340
    for(i = 8U; i < 16U; i++) {
 8001dc6:	4ec1                	li	t4,16
D:/work/WIFI_GD32VW/Github_GD32VW55x/MSDK/plf/GD32VW55x_standard_peripheral/Source/gd32vw55x_gpio.c:341
        if((1U << i) & pin) {
 8001dc8:	28f016b3          	bset	a3,zero,a5
 8001dcc:	8ef1                	and	a3,a3,a2
D:/work/WIFI_GD32VW/Github_GD32VW55x/MSDK/plf/GD32VW55x_standard_peripheral/Source/gd32vw55x_gpio.c:340
    for(i = 8U; i < 16U; i++) {
 8001dce:	0785                	addi	a5,a5,1
D:/work/WIFI_GD32VW/Github_GD32VW55x/MSDK/plf/GD32VW55x_standard_peripheral/Source/gd32vw55x_gpio.c:343
            afrh &= ~GPIO_AFR_MASK(i - 8U);
 8001dd0:	00ef1e33          	sll	t3,t5,a4
D:/work/WIFI_GD32VW/Github_GD32VW55x/MSDK/plf/GD32VW55x_standard_peripheral/Source/gd32vw55x_gpio.c:344
            afrh |= GPIO_AFR_SET(i - 8U, alt_func_num);
 8001dd4:	00e59333          	sll	t1,a1,a4
D:/work/WIFI_GD32VW/Github_GD32VW55x/MSDK/plf/GD32VW55x_standard_peripheral/Source/gd32vw55x_gpio.c:341
        if((1U << i) & pin) {
 8001dd8:	c689                	beqz	a3,8001de2 <gpio_af_set+0x50>
D:/work/WIFI_GD32VW/Github_GD32VW55x/MSDK/plf/GD32VW55x_standard_peripheral/Source/gd32vw55x_gpio.c:343
            afrh &= ~GPIO_AFR_MASK(i - 8U);
 8001dda:	41c87833          	andn	a6,a6,t3
D:/work/WIFI_GD32VW/Github_GD32VW55x/MSDK/plf/GD32VW55x_standard_peripheral/Source/gd32vw55x_gpio.c:344
            afrh |= GPIO_AFR_SET(i - 8U, alt_func_num);
 8001dde:	01036833          	or	a6,t1,a6
D:/work/WIFI_GD32VW/Github_GD32VW55x/MSDK/plf/GD32VW55x_standard_peripheral/Source/gd32vw55x_gpio.c:340 (discriminator 2)
    for(i = 8U; i < 16U; i++) {
 8001de2:	0711                	addi	a4,a4,4
 8001de4:	ffd792e3          	bne	a5,t4,8001dc8 <gpio_af_set+0x36>
D:/work/WIFI_GD32VW/Github_GD32VW55x/MSDK/plf/GD32VW55x_standard_peripheral/Source/gd32vw55x_gpio.c:348
        }
    }

    GPIO_AFSEL0(gpio_periph) = afrl;
 8001de8:	03152023          	sw	a7,32(a0)
D:/work/WIFI_GD32VW/Github_GD32VW55x/MSDK/plf/GD32VW55x_standard_peripheral/Source/gd32vw55x_gpio.c:349
    GPIO_AFSEL1(gpio_periph) = afrh;
 8001dec:	03052223          	sw	a6,36(a0)
D:/work/WIFI_GD32VW/Github_GD32VW55x/MSDK/plf/GD32VW55x_standard_peripheral/Source/gd32vw55x_gpio.c:350
}
 8001df0:	8082                	ret

08001df2 <rcu_periph_clock_enable>:
rcu_periph_clock_enable():
D:/work/WIFI_GD32VW/Github_GD32VW55x/MSDK/plf/GD32VW55x_standard_peripheral/Source/gd32vw55x_rcu.c:137
    \param[out] none
    \retval     none
*/
void rcu_periph_clock_enable(rcu_periph_enum periph)
{
    RCU_REG_VAL(periph) |= BIT(RCU_BIT_POS(periph));
 8001df2:	40024737          	lui	a4,0x40024
 8001df6:	00655793          	srli	a5,a0,0x6
 8001dfa:	80070713          	addi	a4,a4,-2048 # 40023800 <_sp+0x2001ef00>
 8001dfe:	97ba                	add	a5,a5,a4
 8001e00:	4398                	lw	a4,0(a5)
 8001e02:	28a71533          	bset	a0,a4,a0
 8001e06:	c388                	sw	a0,0(a5)
D:/work/WIFI_GD32VW/Github_GD32VW55x/MSDK/plf/GD32VW55x_standard_peripheral/Source/gd32vw55x_rcu.c:138
}
 8001e08:	8082                	ret

08001e0a <rcu_periph_reset_enable>:
rcu_periph_reset_enable():
 8001e0a:	40024737          	lui	a4,0x40024
 8001e0e:	00655793          	srli	a5,a0,0x6
 8001e12:	80070713          	addi	a4,a4,-2048 # 40023800 <_sp+0x2001ef00>
 8001e16:	97ba                	add	a5,a5,a4
 8001e18:	4398                	lw	a4,0(a5)
 8001e1a:	28a71533          	bset	a0,a4,a0
 8001e1e:	c388                	sw	a0,0(a5)
 8001e20:	8082                	ret

08001e22 <rcu_periph_reset_disable>:
rcu_periph_reset_disable():
 8001e22:	40024737          	lui	a4,0x40024
 8001e26:	00655793          	srli	a5,a0,0x6
 8001e2a:	80070713          	addi	a4,a4,-2048 # 40023800 <_sp+0x2001ef00>
 8001e2e:	97ba                	add	a5,a5,a4
 8001e30:	4398                	lw	a4,0(a5)
 8001e32:	28a01533          	bset	a0,zero,a0
 8001e36:	40a77533          	andn	a0,a4,a0
 8001e3a:	c388                	sw	a0,0(a5)
 8001e3c:	8082                	ret

08001e3e <rcu_clock_freq_get>:
rcu_clock_freq_get():
D:/work/WIFI_GD32VW/Github_GD32VW55x/MSDK/plf/GD32VW55x_standard_peripheral/Source/gd32vw55x_rcu.c:1068
    uint32_t cksys_freq, ahb_freq, apb1_freq, apb2_freq;
    uint32_t usart0_freq = 0U,i2c0_freq = 0U;
    uint32_t idx, clk_exp;

    /* exponent of AHB, APB1 and APB2 clock divider */
    const uint8_t ahb_exp[16] = {0, 0, 0, 0, 0, 0, 0, 0, 1, 2, 3, 4, 6, 7, 8, 9};
 8001e3e:	080017b7          	lui	a5,0x8001
 8001e42:	31878793          	addi	a5,a5,792 # 8001318 <_sicode+0x4c>
 8001e46:	43d0                	lw	a2,4(a5)
 8001e48:	4794                	lw	a3,8(a5)
 8001e4a:	47d8                	lw	a4,12(a5)
 8001e4c:	438c                	lw	a1,0(a5)
D:/work/WIFI_GD32VW/Github_GD32VW55x/MSDK/plf/GD32VW55x_standard_peripheral/Source/gd32vw55x_rcu.c:1069
    const uint8_t apb1_exp[8] = {0, 0, 0, 0, 1, 2, 3, 4};
 8001e4e:	040307b7          	lui	a5,0x4030
D:/work/WIFI_GD32VW/Github_GD32VW55x/MSDK/plf/GD32VW55x_standard_peripheral/Source/gd32vw55x_rcu.c:1061
{
 8001e52:	7179                	addi	sp,sp,-48
D:/work/WIFI_GD32VW/Github_GD32VW55x/MSDK/plf/GD32VW55x_standard_peripheral/Source/gd32vw55x_rcu.c:1069
    const uint8_t apb1_exp[8] = {0, 0, 0, 0, 1, 2, 3, 4};
 8001e54:	20178793          	addi	a5,a5,513 # 4030201 <__stack_size+0x402f201>
 8001e58:	c23e                	sw	a5,4(sp)
D:/work/WIFI_GD32VW/Github_GD32VW55x/MSDK/plf/GD32VW55x_standard_peripheral/Source/gd32vw55x_rcu.c:1070
    const uint8_t apb2_exp[8] = {0, 0, 0, 0, 1, 2, 3, 4};
 8001e5a:	c63e                	sw	a5,12(sp)
D:/work/WIFI_GD32VW/Github_GD32VW55x/MSDK/plf/GD32VW55x_standard_peripheral/Source/gd32vw55x_rcu.c:1074

    #ifndef CONFIG_PLATFORM_FPGA
    uint32_t plldigpsc;
    const uint32_t plldig_oclk[4] = {192000000, 240000000, 320000000, 480000000};
 8001e5c:	0b71b7b7          	lui	a5,0xb71b
 8001e60:	d03e                	sw	a5,32(sp)
 8001e62:	0e4e27b7          	lui	a5,0xe4e2
 8001e66:	c0078793          	addi	a5,a5,-1024 # e4e1c00 <mbedtls_mpi_mul_mpi_sw+0x2573420>
 8001e6a:	d23e                	sw	a5,36(sp)
 8001e6c:	1312d7b7          	lui	a5,0x1312d
 8001e70:	d43e                	sw	a5,40(sp)
 8001e72:	1c9c47b7          	lui	a5,0x1c9c4
 8001e76:	80078793          	addi	a5,a5,-2048 # 1c9c3800 <mbedtls_mpi_mul_mpi_sw+0x10a55020>
D:/work/WIFI_GD32VW/Github_GD32VW55x/MSDK/plf/GD32VW55x_standard_peripheral/Source/gd32vw55x_rcu.c:1068
    const uint8_t ahb_exp[16] = {0, 0, 0, 0, 0, 0, 0, 0, 1, 2, 3, 4, 6, 7, 8, 9};
 8001e7a:	ca32                	sw	a2,20(sp)
 8001e7c:	cc36                	sw	a3,24(sp)
 8001e7e:	ce3a                	sw	a4,28(sp)
 8001e80:	c82e                	sw	a1,16(sp)
D:/work/WIFI_GD32VW/Github_GD32VW55x/MSDK/plf/GD32VW55x_standard_peripheral/Source/gd32vw55x_rcu.c:1069
    const uint8_t apb1_exp[8] = {0, 0, 0, 0, 1, 2, 3, 4};
 8001e82:	c002                	sw	zero,0(sp)
D:/work/WIFI_GD32VW/Github_GD32VW55x/MSDK/plf/GD32VW55x_standard_peripheral/Source/gd32vw55x_rcu.c:1070
    const uint8_t apb2_exp[8] = {0, 0, 0, 0, 1, 2, 3, 4};
 8001e84:	c402                	sw	zero,8(sp)
D:/work/WIFI_GD32VW/Github_GD32VW55x/MSDK/plf/GD32VW55x_standard_peripheral/Source/gd32vw55x_rcu.c:1074
    const uint32_t plldig_oclk[4] = {192000000, 240000000, 320000000, 480000000};
 8001e86:	d63e                	sw	a5,44(sp)
D:/work/WIFI_GD32VW/Github_GD32VW55x/MSDK/plf/GD32VW55x_standard_peripheral/Source/gd32vw55x_rcu.c:1077
    #endif

    sws = GET_BITS(RCU_CFG0, 2, 3);
 8001e88:	40024737          	lui	a4,0x40024
 8001e8c:	80872783          	lw	a5,-2040(a4) # 40023808 <_sp+0x2001ef08>
D:/work/WIFI_GD32VW/Github_GD32VW55x/MSDK/plf/GD32VW55x_standard_peripheral/Source/gd32vw55x_rcu.c:1078
    switch(sws){
 8001e90:	4685                	li	a3,1
D:/work/WIFI_GD32VW/Github_GD32VW55x/MSDK/plf/GD32VW55x_standard_peripheral/Source/gd32vw55x_rcu.c:1061
{
 8001e92:	862a                	mv	a2,a0
D:/work/WIFI_GD32VW/Github_GD32VW55x/MSDK/plf/GD32VW55x_standard_peripheral/Source/gd32vw55x_rcu.c:1077
    sws = GET_BITS(RCU_CFG0, 2, 3);
 8001e94:	8389                	srli	a5,a5,0x2
 8001e96:	8b8d                	andi	a5,a5,3
D:/work/WIFI_GD32VW/Github_GD32VW55x/MSDK/plf/GD32VW55x_standard_peripheral/Source/gd32vw55x_rcu.c:1078
    switch(sws){
 8001e98:	08d78463          	beq	a5,a3,8001f20 <rcu_clock_freq_get+0xe2>
 8001e9c:	4689                	li	a3,2
 8001e9e:	06d79c63          	bne	a5,a3,8001f16 <rcu_clock_freq_get+0xd8>
D:/work/WIFI_GD32VW/Github_GD32VW55x/MSDK/plf/GD32VW55x_standard_peripheral/Source/gd32vw55x_rcu.c:1093
    case SEL_PLLDIG:
    #ifdef CONFIG_PLATFORM_FPGA
        /* For FPGA platform, PLLDIG clock is fixed at HXTAL_VALUE */
        cksys_freq = HXTAL_VALUE;
    #else
        idx = GET_BITS(RCU_PLLDIGCFG0, 24, 25);
 8001ea2:	88472783          	lw	a5,-1916(a4)
D:/work/WIFI_GD32VW/Github_GD32VW55x/MSDK/plf/GD32VW55x_standard_peripheral/Source/gd32vw55x_rcu.c:1095
        plldigpsc = GET_BITS(RCU_PLLDIGCFG0, 26U, 31U) + 1;
        cksys_freq = plldig_oclk[idx] / plldigpsc;
 8001ea6:	1814                	addi	a3,sp,48
D:/work/WIFI_GD32VW/Github_GD32VW55x/MSDK/plf/GD32VW55x_standard_peripheral/Source/gd32vw55x_rcu.c:1094
        plldigpsc = GET_BITS(RCU_PLLDIGCFG0, 26U, 31U) + 1;
 8001ea8:	88472703          	lw	a4,-1916(a4)
D:/work/WIFI_GD32VW/Github_GD32VW55x/MSDK/plf/GD32VW55x_standard_peripheral/Source/gd32vw55x_rcu.c:1093
        idx = GET_BITS(RCU_PLLDIGCFG0, 24, 25);
 8001eac:	83d9                	srli	a5,a5,0x16
D:/work/WIFI_GD32VW/Github_GD32VW55x/MSDK/plf/GD32VW55x_standard_peripheral/Source/gd32vw55x_rcu.c:1095
        cksys_freq = plldig_oclk[idx] / plldigpsc;
 8001eae:	8bb1                	andi	a5,a5,12
 8001eb0:	97b6                	add	a5,a5,a3
 8001eb2:	ff07a583          	lw	a1,-16(a5)
D:/work/WIFI_GD32VW/Github_GD32VW55x/MSDK/plf/GD32VW55x_standard_peripheral/Source/gd32vw55x_rcu.c:1094
        plldigpsc = GET_BITS(RCU_PLLDIGCFG0, 26U, 31U) + 1;
 8001eb6:	01a75793          	srli	a5,a4,0x1a
 8001eba:	0785                	addi	a5,a5,1
D:/work/WIFI_GD32VW/Github_GD32VW55x/MSDK/plf/GD32VW55x_standard_peripheral/Source/gd32vw55x_rcu.c:1095
        cksys_freq = plldig_oclk[idx] / plldigpsc;
 8001ebc:	02f5d5b3          	divu	a1,a1,a5
D:/work/WIFI_GD32VW/Github_GD32VW55x/MSDK/plf/GD32VW55x_standard_peripheral/Source/gd32vw55x_rcu.c:1104
    default:
        cksys_freq = IRC16M_VALUE;
        break;
    }
    /* calculate AHB clock frequency */
    idx = GET_BITS(RCU_CFG0, 4, 7);
 8001ec0:	400247b7          	lui	a5,0x40024
 8001ec4:	8087a683          	lw	a3,-2040(a5) # 40023808 <_sp+0x2001ef08>
D:/work/WIFI_GD32VW/Github_GD32VW55x/MSDK/plf/GD32VW55x_standard_peripheral/Source/gd32vw55x_rcu.c:1109
    clk_exp = ahb_exp[idx];
    ahb_freq = cksys_freq >> clk_exp;

    /* calculate APB1 clock frequency */
    idx = GET_BITS(RCU_CFG0, 10, 12);
 8001ec8:	8087a703          	lw	a4,-2040(a5)
D:/work/WIFI_GD32VW/Github_GD32VW55x/MSDK/plf/GD32VW55x_standard_peripheral/Source/gd32vw55x_rcu.c:1105
    clk_exp = ahb_exp[idx];
 8001ecc:	1808                	addi	a0,sp,48
D:/work/WIFI_GD32VW/Github_GD32VW55x/MSDK/plf/GD32VW55x_standard_peripheral/Source/gd32vw55x_rcu.c:1104
    idx = GET_BITS(RCU_CFG0, 4, 7);
 8001ece:	8291                	srli	a3,a3,0x4
 8001ed0:	8abd                	andi	a3,a3,15
D:/work/WIFI_GD32VW/Github_GD32VW55x/MSDK/plf/GD32VW55x_standard_peripheral/Source/gd32vw55x_rcu.c:1105
    clk_exp = ahb_exp[idx];
 8001ed2:	96aa                	add	a3,a3,a0
D:/work/WIFI_GD32VW/Github_GD32VW55x/MSDK/plf/GD32VW55x_standard_peripheral/Source/gd32vw55x_rcu.c:1114
    clk_exp = apb1_exp[idx];
    apb1_freq = ahb_freq >> clk_exp;

    /* calculate APB2 clock frequency */
    idx = GET_BITS(RCU_CFG0, 13, 15);
 8001ed4:	8087a783          	lw	a5,-2040(a5)
D:/work/WIFI_GD32VW/Github_GD32VW55x/MSDK/plf/GD32VW55x_standard_peripheral/Source/gd32vw55x_rcu.c:1109
    idx = GET_BITS(RCU_CFG0, 10, 12);
 8001ed8:	8329                	srli	a4,a4,0xa
D:/work/WIFI_GD32VW/Github_GD32VW55x/MSDK/plf/GD32VW55x_standard_peripheral/Source/gd32vw55x_rcu.c:1105
    clk_exp = ahb_exp[idx];
 8001eda:	fe06c683          	lbu	a3,-32(a3)
D:/work/WIFI_GD32VW/Github_GD32VW55x/MSDK/plf/GD32VW55x_standard_peripheral/Source/gd32vw55x_rcu.c:1109
    idx = GET_BITS(RCU_CFG0, 10, 12);
 8001ede:	8b1d                	andi	a4,a4,7
D:/work/WIFI_GD32VW/Github_GD32VW55x/MSDK/plf/GD32VW55x_standard_peripheral/Source/gd32vw55x_rcu.c:1110
    clk_exp = apb1_exp[idx];
 8001ee0:	972a                	add	a4,a4,a0
 8001ee2:	fd074503          	lbu	a0,-48(a4)
D:/work/WIFI_GD32VW/Github_GD32VW55x/MSDK/plf/GD32VW55x_standard_peripheral/Source/gd32vw55x_rcu.c:1114
    idx = GET_BITS(RCU_CFG0, 13, 15);
 8001ee6:	83b5                	srli	a5,a5,0xd
D:/work/WIFI_GD32VW/Github_GD32VW55x/MSDK/plf/GD32VW55x_standard_peripheral/Source/gd32vw55x_rcu.c:1106
    ahb_freq = cksys_freq >> clk_exp;
 8001ee8:	00d5d733          	srl	a4,a1,a3
D:/work/WIFI_GD32VW/Github_GD32VW55x/MSDK/plf/GD32VW55x_standard_peripheral/Source/gd32vw55x_rcu.c:1114
    idx = GET_BITS(RCU_CFG0, 13, 15);
 8001eec:	8b9d                	andi	a5,a5,7
D:/work/WIFI_GD32VW/Github_GD32VW55x/MSDK/plf/GD32VW55x_standard_peripheral/Source/gd32vw55x_rcu.c:1115
    clk_exp = apb2_exp[idx];
 8001eee:	1814                	addi	a3,sp,48
 8001ef0:	97b6                	add	a5,a5,a3
 8001ef2:	4695                	li	a3,5
 8001ef4:	fd87c803          	lbu	a6,-40(a5)
D:/work/WIFI_GD32VW/Github_GD32VW55x/MSDK/plf/GD32VW55x_standard_peripheral/Source/gd32vw55x_rcu.c:1111
    apb1_freq = ahb_freq >> clk_exp;
 8001ef8:	00a75533          	srl	a0,a4,a0
D:/work/WIFI_GD32VW/Github_GD32VW55x/MSDK/plf/GD32VW55x_standard_peripheral/Source/gd32vw55x_rcu.c:1123
#ifdef CONFIG_PLATFORM_FPGA
    apb1_freq = apb2_freq;
#endif

    /* return the clocks frequency */
    switch(clock){
 8001efc:	0ac6ea63          	bltu	a3,a2,8001fb0 <rcu_clock_freq_get+0x172>
 8001f00:	080017b7          	lui	a5,0x8001
 8001f04:	30078793          	addi	a5,a5,768 # 8001300 <_sicode+0x34>
 8001f08:	20f64633          	sh2add	a2,a2,a5
 8001f0c:	421c                	lw	a5,0(a2)
 8001f0e:	8782                	jr	a5
D:/work/WIFI_GD32VW/Github_GD32VW55x/MSDK/plf/GD32VW55x_standard_peripheral/Source/gd32vw55x_rcu.c:1115
    clk_exp = apb2_exp[idx];
 8001f10:	852e                	mv	a0,a1
D:/work/WIFI_GD32VW/Github_GD32VW55x/MSDK/plf/GD32VW55x_standard_peripheral/Source/gd32vw55x_rcu.c:1166
        break;
    default:
        break;
    }
    return ck_freq;
}
 8001f12:	6145                	addi	sp,sp,48
 8001f14:	8082                	ret
D:/work/WIFI_GD32VW/Github_GD32VW55x/MSDK/plf/GD32VW55x_standard_peripheral/Source/gd32vw55x_rcu.c:1081
        cksys_freq = IRC16M_VALUE;
 8001f16:	00f425b7          	lui	a1,0xf42
 8001f1a:	40058593          	addi	a1,a1,1024 # f42400 <__stack_size+0xf41400>
 8001f1e:	b74d                	j	8001ec0 <rcu_clock_freq_get+0x82>
D:/work/WIFI_GD32VW/Github_GD32VW55x/MSDK/plf/GD32VW55x_standard_peripheral/Source/gd32vw55x_rcu.c:1078
    switch(sws){
 8001f20:	026265b7          	lui	a1,0x2626
 8001f24:	a0058593          	addi	a1,a1,-1536 # 2625a00 <__stack_size+0x2624a00>
 8001f28:	bf61                	j	8001ec0 <rcu_clock_freq_get+0x82>
D:/work/WIFI_GD32VW/Github_GD32VW55x/MSDK/plf/GD32VW55x_standard_peripheral/Source/gd32vw55x_rcu.c:1128
        ck_freq = ahb_freq;
 8001f2a:	853a                	mv	a0,a4
D:/work/WIFI_GD32VW/Github_GD32VW55x/MSDK/plf/GD32VW55x_standard_peripheral/Source/gd32vw55x_rcu.c:1166
}
 8001f2c:	6145                	addi	sp,sp,48
 8001f2e:	8082                	ret
D:/work/WIFI_GD32VW/Github_GD32VW55x/MSDK/plf/GD32VW55x_standard_peripheral/Source/gd32vw55x_rcu.c:1116
    apb2_freq = ahb_freq >> clk_exp;
 8001f30:	01075533          	srl	a0,a4,a6
D:/work/WIFI_GD32VW/Github_GD32VW55x/MSDK/plf/GD32VW55x_standard_peripheral/Source/gd32vw55x_rcu.c:1166
}
 8001f34:	6145                	addi	sp,sp,48
 8001f36:	8082                	ret
D:/work/WIFI_GD32VW/Github_GD32VW55x/MSDK/plf/GD32VW55x_standard_peripheral/Source/gd32vw55x_rcu.c:1138
        if(RCU_USART0SRC_CKAPB1 == (RCU_CFG1 & RCU_CFG1_USART0SEL)){
 8001f38:	400246b7          	lui	a3,0x40024
 8001f3c:	88c6a783          	lw	a5,-1908(a3) # 4002388c <_sp+0x2001ef8c>
 8001f40:	c0000737          	lui	a4,0xc0000
 8001f44:	8ff9                	and	a5,a5,a4
 8001f46:	d7f1                	beqz	a5,8001f12 <rcu_clock_freq_get+0xd4>
D:/work/WIFI_GD32VW/Github_GD32VW55x/MSDK/plf/GD32VW55x_standard_peripheral/Source/gd32vw55x_rcu.c:1140
        }else if(RCU_USART0SRC_CKSYS == (RCU_CFG1 & RCU_CFG1_USART0SEL)){
 8001f48:	88c6a783          	lw	a5,-1908(a3)
 8001f4c:	40000637          	lui	a2,0x40000
D:/work/WIFI_GD32VW/Github_GD32VW55x/MSDK/plf/GD32VW55x_standard_peripheral/Source/gd32vw55x_rcu.c:1141
            usart0_freq = cksys_freq;
 8001f50:	852e                	mv	a0,a1
D:/work/WIFI_GD32VW/Github_GD32VW55x/MSDK/plf/GD32VW55x_standard_peripheral/Source/gd32vw55x_rcu.c:1140
        }else if(RCU_USART0SRC_CKSYS == (RCU_CFG1 & RCU_CFG1_USART0SEL)){
 8001f52:	8ff9                	and	a5,a5,a4
 8001f54:	fac78fe3          	beq	a5,a2,8001f12 <rcu_clock_freq_get+0xd4>
D:/work/WIFI_GD32VW/Github_GD32VW55x/MSDK/plf/GD32VW55x_standard_peripheral/Source/gd32vw55x_rcu.c:1142
        }else if(RCU_USART0SRC_LXTAL == (RCU_CFG1 & RCU_CFG1_USART0SEL)){
 8001f58:	88c6a783          	lw	a5,-1908(a3)
 8001f5c:	80000637          	lui	a2,0x80000
D:/work/WIFI_GD32VW/Github_GD32VW55x/MSDK/plf/GD32VW55x_standard_peripheral/Source/gd32vw55x_rcu.c:1143
            usart0_freq = LXTAL_VALUE;
 8001f60:	6521                	lui	a0,0x8
D:/work/WIFI_GD32VW/Github_GD32VW55x/MSDK/plf/GD32VW55x_standard_peripheral/Source/gd32vw55x_rcu.c:1142
        }else if(RCU_USART0SRC_LXTAL == (RCU_CFG1 & RCU_CFG1_USART0SEL)){
 8001f62:	8ff9                	and	a5,a5,a4
 8001f64:	fac787e3          	beq	a5,a2,8001f12 <rcu_clock_freq_get+0xd4>
D:/work/WIFI_GD32VW/Github_GD32VW55x/MSDK/plf/GD32VW55x_standard_peripheral/Source/gd32vw55x_rcu.c:1144
        }else if(RCU_USART0SRC_IRC16M == (RCU_CFG1 & RCU_CFG1_USART0SEL)){
 8001f68:	88c6a783          	lw	a5,-1908(a3)
D:/work/WIFI_GD32VW/Github_GD32VW55x/MSDK/plf/GD32VW55x_standard_peripheral/Source/gd32vw55x_rcu.c:1064
    uint32_t usart0_freq = 0U,i2c0_freq = 0U;
 8001f6c:	4501                	li	a0,0
D:/work/WIFI_GD32VW/Github_GD32VW55x/MSDK/plf/GD32VW55x_standard_peripheral/Source/gd32vw55x_rcu.c:1144
        }else if(RCU_USART0SRC_IRC16M == (RCU_CFG1 & RCU_CFG1_USART0SEL)){
 8001f6e:	8ff9                	and	a5,a5,a4
 8001f70:	fae791e3          	bne	a5,a4,8001f12 <rcu_clock_freq_get+0xd4>
 8001f74:	a80d                	j	8001fa6 <rcu_clock_freq_get+0x168>
D:/work/WIFI_GD32VW/Github_GD32VW55x/MSDK/plf/GD32VW55x_standard_peripheral/Source/gd32vw55x_rcu.c:1152
        if(RCU_I2C0SRC_CKAPB1 == (RCU_CFG1 & RCU_CFG1_I2C0SEL)){
 8001f76:	400246b7          	lui	a3,0x40024
 8001f7a:	88c6a783          	lw	a5,-1908(a3) # 4002388c <_sp+0x2001ef8c>
 8001f7e:	0c000737          	lui	a4,0xc000
 8001f82:	8ff9                	and	a5,a5,a4
 8001f84:	d7d9                	beqz	a5,8001f12 <rcu_clock_freq_get+0xd4>
D:/work/WIFI_GD32VW/Github_GD32VW55x/MSDK/plf/GD32VW55x_standard_peripheral/Source/gd32vw55x_rcu.c:1154
        }else if(RCU_I2C0SRC_CKSYS == (RCU_CFG1 & RCU_CFG1_I2C0SEL)){
 8001f86:	88c6a783          	lw	a5,-1908(a3)
 8001f8a:	04000637          	lui	a2,0x4000
D:/work/WIFI_GD32VW/Github_GD32VW55x/MSDK/plf/GD32VW55x_standard_peripheral/Source/gd32vw55x_rcu.c:1155
            i2c0_freq = cksys_freq;
 8001f8e:	852e                	mv	a0,a1
D:/work/WIFI_GD32VW/Github_GD32VW55x/MSDK/plf/GD32VW55x_standard_peripheral/Source/gd32vw55x_rcu.c:1154
        }else if(RCU_I2C0SRC_CKSYS == (RCU_CFG1 & RCU_CFG1_I2C0SEL)){
 8001f90:	8ff9                	and	a5,a5,a4
 8001f92:	f8c780e3          	beq	a5,a2,8001f12 <rcu_clock_freq_get+0xd4>
D:/work/WIFI_GD32VW/Github_GD32VW55x/MSDK/plf/GD32VW55x_standard_peripheral/Source/gd32vw55x_rcu.c:1156
        }else if(RCU_I2C0SRC_IRC16M == (RCU_CFG1 & RCU_CFG1_I2C0SEL)){
 8001f96:	88c6a783          	lw	a5,-1908(a3)
 8001f9a:	080006b7          	lui	a3,0x8000
D:/work/WIFI_GD32VW/Github_GD32VW55x/MSDK/plf/GD32VW55x_standard_peripheral/Source/gd32vw55x_rcu.c:1064
    uint32_t usart0_freq = 0U,i2c0_freq = 0U;
 8001f9e:	4501                	li	a0,0
D:/work/WIFI_GD32VW/Github_GD32VW55x/MSDK/plf/GD32VW55x_standard_peripheral/Source/gd32vw55x_rcu.c:1156
        }else if(RCU_I2C0SRC_IRC16M == (RCU_CFG1 & RCU_CFG1_I2C0SEL)){
 8001fa0:	8f7d                	and	a4,a4,a5
 8001fa2:	f6d718e3          	bne	a4,a3,8001f12 <rcu_clock_freq_get+0xd4>
D:/work/WIFI_GD32VW/Github_GD32VW55x/MSDK/plf/GD32VW55x_standard_peripheral/Source/gd32vw55x_rcu.c:1145
            usart0_freq = IRC16M_VALUE;
 8001fa6:	00f42537          	lui	a0,0xf42
 8001faa:	40050513          	addi	a0,a0,1024 # f42400 <__stack_size+0xf41400>
 8001fae:	b795                	j	8001f12 <rcu_clock_freq_get+0xd4>
D:/work/WIFI_GD32VW/Github_GD32VW55x/MSDK/plf/GD32VW55x_standard_peripheral/Source/gd32vw55x_rcu.c:1062
    uint32_t sws, ck_freq = 0U;
 8001fb0:	4501                	li	a0,0
 8001fb2:	b785                	j	8001f12 <rcu_clock_freq_get+0xd4>

08001fb4 <usart_deinit>:
usart_deinit():
D:/work/WIFI_GD32VW/Github_GD32VW55x/MSDK/plf/GD32VW55x_standard_peripheral/Source/gd32vw55x_usart.c:52
    \param[in]  usart_periph: USART0/UARTx(x=1,2)
    \param[out] none
    \retval     none
*/
void usart_deinit(uint32_t usart_periph)
{
 8001fb4:	7bf002ef          	jal	t0,8002f72 <__riscv_save_0>
D:/work/WIFI_GD32VW/Github_GD32VW55x/MSDK/plf/GD32VW55x_standard_peripheral/Source/gd32vw55x_usart.c:53
    switch(usart_periph){
 8001fb8:	400057b7          	lui	a5,0x40005
 8001fbc:	80078793          	addi	a5,a5,-2048 # 40004800 <_sp+0x1fffff00>
 8001fc0:	00f50e63          	beq	a0,a5,8001fdc <usart_deinit+0x28>
 8001fc4:	400117b7          	lui	a5,0x40011
 8001fc8:	02f50c63          	beq	a0,a5,8002000 <usart_deinit+0x4c>
 8001fcc:	400047b7          	lui	a5,0x40004
 8001fd0:	40078793          	addi	a5,a5,1024 # 40004400 <_sp+0x1ffffb00>
 8001fd4:	00f50d63          	beq	a0,a5,8001fee <usart_deinit+0x3a>
D:/work/WIFI_GD32VW/Github_GD32VW55x/MSDK/plf/GD32VW55x_standard_peripheral/Source/gd32vw55x_usart.c:72
        rcu_periph_reset_disable(RCU_UART2RST);
        break;
    default:
        break;
    }
}
 8001fd8:	7bf0006f          	j	8002f96 <__riscv_restore_0>
D:/work/WIFI_GD32VW/Github_GD32VW55x/MSDK/plf/GD32VW55x_standard_peripheral/Source/gd32vw55x_usart.c:56
        rcu_periph_reset_enable(RCU_USART0RST);
 8001fdc:	6405                	lui	s0,0x1
 8001fde:	81240513          	addi	a0,s0,-2030 # 812 <__stack_size-0x7ee>
 8001fe2:	3525                	jal	8001e0a <rcu_periph_reset_enable>
D:/work/WIFI_GD32VW/Github_GD32VW55x/MSDK/plf/GD32VW55x_standard_peripheral/Source/gd32vw55x_usart.c:57
        rcu_periph_reset_disable(RCU_USART0RST);
 8001fe4:	81240513          	addi	a0,s0,-2030
 8001fe8:	3d2d                	jal	8001e22 <rcu_periph_reset_disable>
D:/work/WIFI_GD32VW/Github_GD32VW55x/MSDK/plf/GD32VW55x_standard_peripheral/Source/gd32vw55x_usart.c:72
}
 8001fea:	7ad0006f          	j	8002f96 <__riscv_restore_0>
D:/work/WIFI_GD32VW/Github_GD32VW55x/MSDK/plf/GD32VW55x_standard_peripheral/Source/gd32vw55x_usart.c:61
        rcu_periph_reset_enable(RCU_UART1RST);
 8001fee:	6405                	lui	s0,0x1
 8001ff0:	81140513          	addi	a0,s0,-2031 # 811 <__stack_size-0x7ef>
 8001ff4:	3d19                	jal	8001e0a <rcu_periph_reset_enable>
D:/work/WIFI_GD32VW/Github_GD32VW55x/MSDK/plf/GD32VW55x_standard_peripheral/Source/gd32vw55x_usart.c:62
        rcu_periph_reset_disable(RCU_UART1RST);
 8001ff6:	81140513          	addi	a0,s0,-2031
 8001ffa:	3525                	jal	8001e22 <rcu_periph_reset_disable>
D:/work/WIFI_GD32VW/Github_GD32VW55x/MSDK/plf/GD32VW55x_standard_peripheral/Source/gd32vw55x_usart.c:72
}
 8001ffc:	79b0006f          	j	8002f96 <__riscv_restore_0>
D:/work/WIFI_GD32VW/Github_GD32VW55x/MSDK/plf/GD32VW55x_standard_peripheral/Source/gd32vw55x_usart.c:66
        rcu_periph_reset_enable(RCU_UART2RST);
 8002000:	6405                	lui	s0,0x1
 8002002:	90440513          	addi	a0,s0,-1788 # 904 <__stack_size-0x6fc>
 8002006:	3511                	jal	8001e0a <rcu_periph_reset_enable>
D:/work/WIFI_GD32VW/Github_GD32VW55x/MSDK/plf/GD32VW55x_standard_peripheral/Source/gd32vw55x_usart.c:67
        rcu_periph_reset_disable(RCU_UART2RST);
 8002008:	90440513          	addi	a0,s0,-1788
 800200c:	3d19                	jal	8001e22 <rcu_periph_reset_disable>
D:/work/WIFI_GD32VW/Github_GD32VW55x/MSDK/plf/GD32VW55x_standard_peripheral/Source/gd32vw55x_usart.c:72
}
 800200e:	7890006f          	j	8002f96 <__riscv_restore_0>

08002012 <usart_baudrate_set>:
usart_baudrate_set():
D:/work/WIFI_GD32VW/Github_GD32VW55x/MSDK/plf/GD32VW55x_standard_peripheral/Source/gd32vw55x_usart.c:82
    \param[in]  baudval: baud rate value
    \param[out] none
    \retval     none
*/
void usart_baudrate_set(uint32_t usart_periph, uint32_t baudval)
{
 8002012:	761002ef          	jal	t0,8002f72 <__riscv_save_0>
D:/work/WIFI_GD32VW/Github_GD32VW55x/MSDK/plf/GD32VW55x_standard_peripheral/Source/gd32vw55x_usart.c:84
    uint32_t uclk = 0U, intdiv = 0U, fradiv = 0U, udiv = 0U;
    switch(usart_periph){
 8002016:	400057b7          	lui	a5,0x40005
 800201a:	80078793          	addi	a5,a5,-2048 # 40004800 <_sp+0x1fffff00>
D:/work/WIFI_GD32VW/Github_GD32VW55x/MSDK/plf/GD32VW55x_standard_peripheral/Source/gd32vw55x_usart.c:82
{
 800201e:	842a                	mv	s0,a0
 8002020:	84ae                	mv	s1,a1
D:/work/WIFI_GD32VW/Github_GD32VW55x/MSDK/plf/GD32VW55x_standard_peripheral/Source/gd32vw55x_usart.c:84
    switch(usart_periph){
 8002022:	04f50a63          	beq	a0,a5,8002076 <usart_baudrate_set+0x64>
 8002026:	400117b7          	lui	a5,0x40011
 800202a:	04f50c63          	beq	a0,a5,8002082 <usart_baudrate_set+0x70>
 800202e:	400047b7          	lui	a5,0x40004
 8002032:	40078793          	addi	a5,a5,1024 # 40004400 <_sp+0x1ffffb00>
 8002036:	4501                	li	a0,0
 8002038:	04f40263          	beq	s0,a5,800207c <usart_baudrate_set+0x6a>
D:/work/WIFI_GD32VW/Github_GD32VW55x/MSDK/plf/GD32VW55x_standard_peripheral/Source/gd32vw55x_usart.c:101
         uclk = rcu_clock_freq_get(CK_APB2);
         break;
    default:
         break;
    }
    if(USART_CTL0(usart_periph) & USART_CTL0_OVSMOD){
 800203c:	4018                	lw	a4,0(s0)
 800203e:	67a1                	lui	a5,0x8
D:/work/WIFI_GD32VW/Github_GD32VW55x/MSDK/plf/GD32VW55x_standard_peripheral/Source/gd32vw55x_usart.c:103
        /* oversampling by 8, configure the value of USART_BAUD */
        udiv = ((2U * uclk) + (baudval / 2U)) / baudval;
 8002040:	0014d593          	srli	a1,s1,0x1
D:/work/WIFI_GD32VW/Github_GD32VW55x/MSDK/plf/GD32VW55x_standard_peripheral/Source/gd32vw55x_usart.c:101
    if(USART_CTL0(usart_periph) & USART_CTL0_OVSMOD){
 8002044:	8f7d                	and	a4,a4,a5
 8002046:	cf19                	beqz	a4,8002064 <usart_baudrate_set+0x52>
D:/work/WIFI_GD32VW/Github_GD32VW55x/MSDK/plf/GD32VW55x_standard_peripheral/Source/gd32vw55x_usart.c:103
        udiv = ((2U * uclk) + (baudval / 2U)) / baudval;
 8002048:	20b527b3          	sh1add	a5,a0,a1
 800204c:	0297d5b3          	divu	a1,a5,s1
D:/work/WIFI_GD32VW/Github_GD32VW55x/MSDK/plf/GD32VW55x_standard_peripheral/Source/gd32vw55x_usart.c:104
        intdiv = udiv & 0x0000fff0U;
 8002050:	6541                	lui	a0,0x10
 8002052:	1541                	addi	a0,a0,-16
D:/work/WIFI_GD32VW/Github_GD32VW55x/MSDK/plf/GD32VW55x_standard_peripheral/Source/gd32vw55x_usart.c:105
        fradiv = (udiv >> 1U) & 0x00000007U;
 8002054:	0015d793          	srli	a5,a1,0x1
 8002058:	8b9d                	andi	a5,a5,7
D:/work/WIFI_GD32VW/Github_GD32VW55x/MSDK/plf/GD32VW55x_standard_peripheral/Source/gd32vw55x_usart.c:104
        intdiv = udiv & 0x0000fff0U;
 800205a:	8de9                	and	a1,a1,a0
D:/work/WIFI_GD32VW/Github_GD32VW55x/MSDK/plf/GD32VW55x_standard_peripheral/Source/gd32vw55x_usart.c:106
        USART_BAUD(usart_periph) = ((USART_BAUD_FRADIV | USART_BAUD_INTDIV) & (intdiv | fradiv));
 800205c:	8ddd                	or	a1,a1,a5
 800205e:	c44c                	sw	a1,12(s0)
D:/work/WIFI_GD32VW/Github_GD32VW55x/MSDK/plf/GD32VW55x_standard_peripheral/Source/gd32vw55x_usart.c:114
        udiv = (uclk + (baudval / 2U)) / baudval;
        intdiv = udiv & 0x0000fff0U;
        fradiv = udiv & 0x0000000fU;
        USART_BAUD(usart_periph) = ((USART_BAUD_FRADIV | USART_BAUD_INTDIV) & (intdiv | fradiv));
    }
}
 8002060:	7370006f          	j	8002f96 <__riscv_restore_0>
D:/work/WIFI_GD32VW/Github_GD32VW55x/MSDK/plf/GD32VW55x_standard_peripheral/Source/gd32vw55x_usart.c:109
        udiv = (uclk + (baudval / 2U)) / baudval;
 8002064:	00b507b3          	add	a5,a0,a1
 8002068:	0297d5b3          	divu	a1,a5,s1
D:/work/WIFI_GD32VW/Github_GD32VW55x/MSDK/plf/GD32VW55x_standard_peripheral/Source/gd32vw55x_usart.c:112
        USART_BAUD(usart_periph) = ((USART_BAUD_FRADIV | USART_BAUD_INTDIV) & (intdiv | fradiv));
 800206c:	0805c5b3          	zext.h	a1,a1
 8002070:	c44c                	sw	a1,12(s0)
D:/work/WIFI_GD32VW/Github_GD32VW55x/MSDK/plf/GD32VW55x_standard_peripheral/Source/gd32vw55x_usart.c:114
}
 8002072:	7250006f          	j	8002f96 <__riscv_restore_0>
D:/work/WIFI_GD32VW/Github_GD32VW55x/MSDK/plf/GD32VW55x_standard_peripheral/Source/gd32vw55x_usart.c:88
         uclk = rcu_clock_freq_get(CK_USART0);
 8002076:	4511                	li	a0,4
 8002078:	33d9                	jal	8001e3e <rcu_clock_freq_get>
D:/work/WIFI_GD32VW/Github_GD32VW55x/MSDK/plf/GD32VW55x_standard_peripheral/Source/gd32vw55x_usart.c:89
         break;
 800207a:	b7c9                	j	800203c <usart_baudrate_set+0x2a>
D:/work/WIFI_GD32VW/Github_GD32VW55x/MSDK/plf/GD32VW55x_standard_peripheral/Source/gd32vw55x_usart.c:92
         uclk = rcu_clock_freq_get(CK_APB1);
 800207c:	4509                	li	a0,2
 800207e:	33c1                	jal	8001e3e <rcu_clock_freq_get>
D:/work/WIFI_GD32VW/Github_GD32VW55x/MSDK/plf/GD32VW55x_standard_peripheral/Source/gd32vw55x_usart.c:93
         break;
 8002080:	bf75                	j	800203c <usart_baudrate_set+0x2a>
D:/work/WIFI_GD32VW/Github_GD32VW55x/MSDK/plf/GD32VW55x_standard_peripheral/Source/gd32vw55x_usart.c:96
         uclk = rcu_clock_freq_get(CK_APB2);
 8002082:	450d                	li	a0,3
 8002084:	3b6d                	jal	8001e3e <rcu_clock_freq_get>
D:/work/WIFI_GD32VW/Github_GD32VW55x/MSDK/plf/GD32VW55x_standard_peripheral/Source/gd32vw55x_usart.c:97
         break;
 8002086:	bf5d                	j	800203c <usart_baudrate_set+0x2a>

08002088 <usart_enable>:
usart_enable():
D:/work/WIFI_GD32VW/Github_GD32VW55x/MSDK/plf/GD32VW55x_standard_peripheral/Source/gd32vw55x_usart.c:186
    \param[out] none
    \retval     none
*/
void usart_enable(uint32_t usart_periph)
{
    USART_CTL0(usart_periph) |= USART_CTL0_UEN;
 8002088:	411c                	lw	a5,0(a0)
 800208a:	0017e793          	ori	a5,a5,1
 800208e:	c11c                	sw	a5,0(a0)
D:/work/WIFI_GD32VW/Github_GD32VW55x/MSDK/plf/GD32VW55x_standard_peripheral/Source/gd32vw55x_usart.c:187
}
 8002090:	8082                	ret

08002092 <usart_transmit_config>:
usart_transmit_config():
D:/work/WIFI_GD32VW/Github_GD32VW55x/MSDK/plf/GD32VW55x_standard_peripheral/Source/gd32vw55x_usart.c:212
    \param[out] none
    \retval     none
*/
void usart_transmit_config(uint32_t usart_periph, uint32_t txconfig)
{
    USART_CTL0(usart_periph) &= ~USART_CTL0_TEN;
 8002092:	4118                	lw	a4,0(a0)
 8002094:	9b5d                	andi	a4,a4,-9
 8002096:	c118                	sw	a4,0(a0)
D:/work/WIFI_GD32VW/Github_GD32VW55x/MSDK/plf/GD32VW55x_standard_peripheral/Source/gd32vw55x_usart.c:214
    /* configure transfer mode */
    USART_CTL0(usart_periph) |= txconfig;
 8002098:	411c                	lw	a5,0(a0)
 800209a:	8fcd                	or	a5,a5,a1
 800209c:	c11c                	sw	a5,0(a0)
D:/work/WIFI_GD32VW/Github_GD32VW55x/MSDK/plf/GD32VW55x_standard_peripheral/Source/gd32vw55x_usart.c:215
}
 800209e:	8082                	ret

080020a0 <usart_receive_config>:
usart_receive_config():
D:/work/WIFI_GD32VW/Github_GD32VW55x/MSDK/plf/GD32VW55x_standard_peripheral/Source/gd32vw55x_usart.c:229
    \param[out] none
    \retval     none
*/
void usart_receive_config(uint32_t usart_periph, uint32_t rxconfig)
{
    USART_CTL0(usart_periph) &= ~USART_CTL0_REN;
 80020a0:	4118                	lw	a4,0(a0)
 80020a2:	9b6d                	andi	a4,a4,-5
 80020a4:	c118                	sw	a4,0(a0)
D:/work/WIFI_GD32VW/Github_GD32VW55x/MSDK/plf/GD32VW55x_standard_peripheral/Source/gd32vw55x_usart.c:231
    /* configure receiver mode */
    USART_CTL0(usart_periph) |= rxconfig;
 80020a6:	411c                	lw	a5,0(a0)
 80020a8:	8fcd                	or	a5,a5,a1
 80020aa:	c11c                	sw	a5,0(a0)
D:/work/WIFI_GD32VW/Github_GD32VW55x/MSDK/plf/GD32VW55x_standard_peripheral/Source/gd32vw55x_usart.c:232
}
 80020ac:	8082                	ret

080020ae <usart_data_transmit>:
usart_data_transmit():
D:/work/WIFI_GD32VW/Github_GD32VW55x/MSDK/plf/GD32VW55x_standard_peripheral/Source/gd32vw55x_usart.c:410
    \param[out] none
    \retval     none
*/
void usart_data_transmit(uint32_t usart_periph, uint16_t data)
{
    USART_TDATA(usart_periph) = (uint32_t)((uint16_t)USART_TDATA_TDATA & data);
 80020ae:	1ff5f593          	andi	a1,a1,511
 80020b2:	d50c                	sw	a1,40(a0)
D:/work/WIFI_GD32VW/Github_GD32VW55x/MSDK/plf/GD32VW55x_standard_peripheral/Source/gd32vw55x_usart.c:411
}
 80020b4:	8082                	ret

080020b6 <usart_flag_get>:
usart_flag_get():
D:/work/WIFI_GD32VW/Github_GD32VW55x/MSDK/plf/GD32VW55x_standard_peripheral/Source/gd32vw55x_usart.c:1142
    \param[out] none
    \retval     FlagStatus: SET or RESET
*/
FlagStatus usart_flag_get(uint32_t usart_periph, usart_flag_enum flag)
{
    if(RESET != (USART_REG_VAL(usart_periph, flag) & BIT(USART_BIT_POS(flag)))){
 80020b6:	0065d793          	srli	a5,a1,0x6
 80020ba:	3ff7f793          	andi	a5,a5,1023
 80020be:	97aa                	add	a5,a5,a0
 80020c0:	4388                	lw	a0,0(a5)
 80020c2:	00b55533          	srl	a0,a0,a1
D:/work/WIFI_GD32VW/Github_GD32VW55x/MSDK/plf/GD32VW55x_standard_peripheral/Source/gd32vw55x_usart.c:1147
        return SET;
    }else{
        return RESET;
    }
}
 80020c6:	8905                	andi	a0,a0,1
 80020c8:	8082                	ret

080020ca <usart_interrupt_enable>:
usart_interrupt_enable():
D:/work/WIFI_GD32VW/Github_GD32VW55x/MSDK/plf/GD32VW55x_standard_peripheral/Source/gd32vw55x_usart.c:1206
    \param[out] none
    \retval     none
*/
void usart_interrupt_enable(uint32_t usart_periph, usart_interrupt_enum interrupt)
{
    USART_REG_VAL(usart_periph, interrupt) |= BIT(USART_BIT_POS(interrupt));
 80020ca:	0065d793          	srli	a5,a1,0x6
 80020ce:	3ff7f793          	andi	a5,a5,1023
 80020d2:	953e                	add	a0,a0,a5
 80020d4:	411c                	lw	a5,0(a0)
 80020d6:	28b795b3          	bset	a1,a5,a1
 80020da:	c10c                	sw	a1,0(a0)
D:/work/WIFI_GD32VW/Github_GD32VW55x/MSDK/plf/GD32VW55x_standard_peripheral/Source/gd32vw55x_usart.c:1207
}
 80020dc:	8082                	ret

080020de <Exception_Init>:
Exception_Init():
D:/work/WIFI_GD32VW/Github_GD32VW55x/MSDK/plf/riscv/env/handlers.c:583
 * \note
 * Called in \ref _init function, used to initialize default exception handlers for all exception IDs
 */
void Exception_Init(void)
{
    for (int i = 0; i < MAX_SYSTEM_EXCEPTION_NUM + 1; i++) {
 80020de:	9f418793          	addi	a5,gp,-1548 # 20000554 <SystemExceptionHandlers>
D:/work/WIFI_GD32VW/Github_GD32VW55x/MSDK/plf/riscv/env/handlers.c:584
        SystemExceptionHandlers[i] = (unsigned long)system_default_exception_handler;
 80020e2:	08002737          	lui	a4,0x8002
 80020e6:	24070713          	addi	a4,a4,576 # 8002240 <system_default_exception_handler>
 80020ea:	03478693          	addi	a3,a5,52 # 8034 <__stack_size+0x7034>
D:/work/WIFI_GD32VW/Github_GD32VW55x/MSDK/plf/riscv/env/handlers.c:584 (discriminator 3)
 80020ee:	c398                	sw	a4,0(a5)
D:/work/WIFI_GD32VW/Github_GD32VW55x/MSDK/plf/riscv/env/handlers.c:583 (discriminator 3)
    for (int i = 0; i < MAX_SYSTEM_EXCEPTION_NUM + 1; i++) {
 80020f0:	0791                	addi	a5,a5,4
 80020f2:	fed79ee3          	bne	a5,a3,80020ee <Exception_Init+0x10>
D:/work/WIFI_GD32VW/Github_GD32VW55x/MSDK/plf/riscv/env/handlers.c:586
    }
}
 80020f6:	8082                	ret

080020f8 <Exception_Register_EXC>:
Exception_Register_EXC():
D:/work/WIFI_GD32VW/Github_GD32VW55x/MSDK/plf/riscv/env/handlers.c:598
 * \param   EXCn    See \ref EXCn_Type
 * \param   exc_handler     The exception handler for this exception code EXCn
 */
void Exception_Register_EXC(uint32_t EXCn, unsigned long exc_handler)
{
    if ((EXCn < MAX_SYSTEM_EXCEPTION_NUM) && (EXCn >= 0)) {
 80020f8:	47ad                	li	a5,11
 80020fa:	00a7e863          	bltu	a5,a0,800210a <Exception_Register_EXC+0x12>
D:/work/WIFI_GD32VW/Github_GD32VW55x/MSDK/plf/riscv/env/handlers.c:599
        SystemExceptionHandlers[EXCn] = exc_handler;
 80020fe:	9f418793          	addi	a5,gp,-1548 # 20000554 <SystemExceptionHandlers>
 8002102:	20f54533          	sh2add	a0,a0,a5
 8002106:	c10c                	sw	a1,0(a0)
 8002108:	8082                	ret
D:/work/WIFI_GD32VW/Github_GD32VW55x/MSDK/plf/riscv/env/handlers.c:600
    } else if (EXCn == NMI_EXCn) {
 800210a:	6785                	lui	a5,0x1
 800210c:	17fd                	addi	a5,a5,-1
 800210e:	00f50363          	beq	a0,a5,8002114 <Exception_Register_EXC+0x1c>
D:/work/WIFI_GD32VW/Github_GD32VW55x/MSDK/plf/riscv/env/handlers.c:603
        SystemExceptionHandlers[MAX_SYSTEM_EXCEPTION_NUM] = exc_handler;
    }
}
 8002112:	8082                	ret
D:/work/WIFI_GD32VW/Github_GD32VW55x/MSDK/plf/riscv/env/handlers.c:601
        SystemExceptionHandlers[MAX_SYSTEM_EXCEPTION_NUM] = exc_handler;
 8002114:	a2b1a223          	sw	a1,-1500(gp) # 20000584 <SystemExceptionHandlers+0x30>
D:/work/WIFI_GD32VW/Github_GD32VW55x/MSDK/plf/riscv/env/handlers.c:603
}
 8002118:	8082                	ret

0800211a <core_exception_handler>:
core_exception_handler():
D:/work/WIFI_GD32VW/Github_GD32VW55x/MSDK/plf/riscv/env/handlers.c:637
 * - For the core_exception_handler template, we provided exception register function \ref Exception_Register_EXC
 *   which can help developer to register your exception handler for specific exception number.
 */
uint32_t core_exception_handler(unsigned long mcause, unsigned long sp)
{
    uint32_t EXCn = (uint32_t)(mcause & 0X00000fff);
 800211a:	6785                	lui	a5,0x1
 800211c:	17fd                	addi	a5,a5,-1
 800211e:	00f57733          	and	a4,a0,a5
D:/work/WIFI_GD32VW/Github_GD32VW55x/MSDK/plf/riscv/env/handlers.c:640
    EXC_HANDLER exc_handler;

    if ((EXCn < MAX_SYSTEM_EXCEPTION_NUM) && (EXCn >= 0)) {
 8002122:	46ad                	li	a3,11
 8002124:	00e6ee63          	bltu	a3,a4,8002140 <core_exception_handler+0x26>
D:/work/WIFI_GD32VW/Github_GD32VW55x/MSDK/plf/riscv/env/handlers.c:641
        exc_handler = (EXC_HANDLER)SystemExceptionHandlers[EXCn];
 8002128:	9f418793          	addi	a5,gp,-1548 # 20000554 <SystemExceptionHandlers>
 800212c:	20f74733          	sh2add	a4,a4,a5
 8002130:	431c                	lw	a5,0(a4)
D:/work/WIFI_GD32VW/Github_GD32VW55x/MSDK/plf/riscv/env/handlers.c:647
    } else if (EXCn == NMI_EXCn) {
        exc_handler = (EXC_HANDLER)SystemExceptionHandlers[MAX_SYSTEM_EXCEPTION_NUM];
    } else {
        exc_handler = (EXC_HANDLER)system_default_exception_handler;
    }
    if (exc_handler != NULL) {
 8002132:	c39d                	beqz	a5,8002158 <core_exception_handler+0x3e>
D:/work/WIFI_GD32VW/Github_GD32VW55x/MSDK/plf/riscv/env/handlers.c:636
{
 8002134:	63f002ef          	jal	t0,8002f72 <__riscv_save_0>
D:/work/WIFI_GD32VW/Github_GD32VW55x/MSDK/plf/riscv/env/handlers.c:648
        exc_handler(mcause, sp);
 8002138:	9782                	jalr	a5
D:/work/WIFI_GD32VW/Github_GD32VW55x/MSDK/plf/riscv/env/handlers.c:651
    }
    return 0;
}
 800213a:	4501                	li	a0,0
 800213c:	65b0006f          	j	8002f96 <__riscv_restore_0>
D:/work/WIFI_GD32VW/Github_GD32VW55x/MSDK/plf/riscv/env/handlers.c:642
    } else if (EXCn == NMI_EXCn) {
 8002140:	00f70e63          	beq	a4,a5,800215c <core_exception_handler+0x42>
D:/work/WIFI_GD32VW/Github_GD32VW55x/MSDK/plf/riscv/env/handlers.c:645
        exc_handler = (EXC_HANDLER)system_default_exception_handler;
 8002144:	080027b7          	lui	a5,0x8002
 8002148:	24078793          	addi	a5,a5,576 # 8002240 <system_default_exception_handler>
D:/work/WIFI_GD32VW/Github_GD32VW55x/MSDK/plf/riscv/env/handlers.c:636
{
 800214c:	627002ef          	jal	t0,8002f72 <__riscv_save_0>
D:/work/WIFI_GD32VW/Github_GD32VW55x/MSDK/plf/riscv/env/handlers.c:648
        exc_handler(mcause, sp);
 8002150:	9782                	jalr	a5
D:/work/WIFI_GD32VW/Github_GD32VW55x/MSDK/plf/riscv/env/handlers.c:651
}
 8002152:	4501                	li	a0,0
 8002154:	6430006f          	j	8002f96 <__riscv_restore_0>
 8002158:	4501                	li	a0,0
 800215a:	8082                	ret
D:/work/WIFI_GD32VW/Github_GD32VW55x/MSDK/plf/riscv/env/handlers.c:643
        exc_handler = (EXC_HANDLER)SystemExceptionHandlers[MAX_SYSTEM_EXCEPTION_NUM];
 800215c:	a241a783          	lw	a5,-1500(gp) # 20000584 <SystemExceptionHandlers+0x30>
D:/work/WIFI_GD32VW/Github_GD32VW55x/MSDK/plf/riscv/env/handlers.c:647
    if (exc_handler != NULL) {
 8002160:	fbf1                	bnez	a5,8002134 <core_exception_handler+0x1a>
 8002162:	bfdd                	j	8002158 <core_exception_handler+0x3e>

08002164 <Exception_DumpFrame>:
Exception_DumpFrame():
D:/work/WIFI_GD32VW/Github_GD32VW55x/MSDK/plf/riscv/env/handlers.c:660
 * \brief      Dump Exception Frame
 * \details
 * This function provided feature to dump exception frame stored in stack.
 */
void Exception_DumpFrame(unsigned long sp)
{
 8002164:	60f002ef          	jal	t0,8002f72 <__riscv_save_0>
 8002168:	832a                	mv	t1,a0
D:/work/WIFI_GD32VW/Github_GD32VW55x/MSDK/plf/riscv/env/handlers.c:665
    EXC_Frame_Type *exc_frame = (EXC_Frame_Type *)sp;
#ifndef __riscv_32e
    /* TODO: Uncomment this if you have implement printf function */
#ifdef EXEC_USING_STD_PRINTF
    printf("ra: 0x%x, tp: 0x%x, t0: 0x%x, t1: 0x%x, t2: 0x%x, t3: 0x%x, t4: 0x%x, t5: 0x%x, t6: 0x%x\n" \
 800216a:	08c52503          	lw	a0,140(a0) # 1008c <__stack_size+0xf08c>
D:/work/WIFI_GD32VW/Github_GD32VW55x/MSDK/plf/riscv/env/handlers.c:660
{
 800216e:	7139                	addi	sp,sp,-64
D:/work/WIFI_GD32VW/Github_GD32VW55x/MSDK/plf/riscv/env/handlers.c:665
    printf("ra: 0x%x, tp: 0x%x, t0: 0x%x, t1: 0x%x, t2: 0x%x, t3: 0x%x, t4: 0x%x, t5: 0x%x, t6: 0x%x\n" \
 8002170:	09c32883          	lw	a7,156(t1) # ffffb09c <_sp+0xdfff679c>
 8002174:	09832803          	lw	a6,152(t1)
 8002178:	06832783          	lw	a5,104(t1)
 800217c:	06432703          	lw	a4,100(t1)
 8002180:	06032683          	lw	a3,96(t1)
 8002184:	05c32603          	lw	a2,92(t1)
 8002188:	05832583          	lw	a1,88(t1)
 800218c:	d82a                	sw	a0,48(sp)
 800218e:	08832503          	lw	a0,136(t1)
 8002192:	d62a                	sw	a0,44(sp)
 8002194:	08432503          	lw	a0,132(t1)
 8002198:	d42a                	sw	a0,40(sp)
 800219a:	09432503          	lw	a0,148(t1)
 800219e:	d22a                	sw	a0,36(sp)
 80021a0:	09032503          	lw	a0,144(t1)
 80021a4:	d02a                	sw	a0,32(sp)
 80021a6:	08032e03          	lw	t3,128(t1)
 80021aa:	08001537          	lui	a0,0x8001
 80021ae:	32850513          	addi	a0,a0,808 # 8001328 <_sicode+0x5c>
 80021b2:	ce72                	sw	t3,28(sp)
 80021b4:	07c32e03          	lw	t3,124(t1)
 80021b8:	cc72                	sw	t3,24(sp)
 80021ba:	07832e03          	lw	t3,120(t1)
 80021be:	ca72                	sw	t3,20(sp)
 80021c0:	07432e03          	lw	t3,116(t1)
 80021c4:	c872                	sw	t3,16(sp)
 80021c6:	07032e03          	lw	t3,112(t1)
 80021ca:	c672                	sw	t3,12(sp)
 80021cc:	06c32e03          	lw	t3,108(t1)
 80021d0:	c472                	sw	t3,8(sp)
 80021d2:	0a432e03          	lw	t3,164(t1)
 80021d6:	c272                	sw	t3,4(sp)
 80021d8:	0a032303          	lw	t1,160(t1)
 80021dc:	c01a                	sw	t1,0(sp)
 80021de:	709000ef          	jal	ra,80030e6 <iprintf>
D:/work/WIFI_GD32VW/Github_GD32VW55x/MSDK/plf/riscv/env/handlers.c:701
           "a0: 0x%x, a1: 0x%x, a2: 0x%x, a3: 0x%x, a4: 0x%x, a5: 0x%x\n" \
           "mcause: 0x%x, mepc: 0x%x, msubm: 0x%x\n", exc_frame->ra, exc_frame->tp, exc_frame->t0, \
           exc_frame->t1, exc_frame->t2, exc_frame->a0, exc_frame->a1, exc_frame->a2, exc_frame->a3, \
           exc_frame->a4, exc_frame->a5, exc_frame->mcause, exc_frame->mepc, exc_frame->msubm);
#endif /* __riscv_32e */
}
 80021e2:	6121                	addi	sp,sp,64
 80021e4:	5b30006f          	j	8002f96 <__riscv_restore_0>

080021e8 <nmi_handler>:
nmi_handler():
D:/work/WIFI_GD32VW/Github_GD32VW55x/MSDK/plf/riscv/env/handlers.c:553
{
 80021e8:	58b002ef          	jal	t0,8002f72 <__riscv_save_0>
 80021ec:	84aa                	mv	s1,a0
D:/work/WIFI_GD32VW/Github_GD32VW55x/MSDK/plf/riscv/env/handlers.c:556
    printf("NMI \r\n");
 80021ee:	08001537          	lui	a0,0x8001
 80021f2:	3f850513          	addi	a0,a0,1016 # 80013f8 <_sicode+0x12c>
D:/work/WIFI_GD32VW/Github_GD32VW55x/MSDK/plf/riscv/env/handlers.c:553
{
 80021f6:	842e                	mv	s0,a1
D:/work/WIFI_GD32VW/Github_GD32VW55x/MSDK/plf/riscv/env/handlers.c:556
    printf("NMI \r\n");
 80021f8:	006010ef          	jal	ra,80031fe <puts>
D:/work/WIFI_GD32VW/Github_GD32VW55x/MSDK/plf/riscv/env/handlers.c:557
    printf("MCAUSE : 0x%lx\r\n", mcause);
 80021fc:	08001537          	lui	a0,0x8001
 8002200:	85a6                	mv	a1,s1
 8002202:	40050513          	addi	a0,a0,1024 # 8001400 <_sicode+0x134>
 8002206:	6e1000ef          	jal	ra,80030e6 <iprintf>
D:/work/WIFI_GD32VW/Github_GD32VW55x/MSDK/plf/riscv/env/handlers.c:558
    printf("MDCAUSE: 0x%lx\r\n", __RV_CSR_READ(CSR_MDCAUSE));
 800220a:	7c9025f3          	csrr	a1,mdcause
 800220e:	08001537          	lui	a0,0x8001
 8002212:	41450513          	addi	a0,a0,1044 # 8001414 <_sicode+0x148>
 8002216:	6d1000ef          	jal	ra,80030e6 <iprintf>
D:/work/WIFI_GD32VW/Github_GD32VW55x/MSDK/plf/riscv/env/handlers.c:559
    printf("MEPC   : 0x%lx\r\n", __RV_CSR_READ(CSR_MEPC));
 800221a:	341025f3          	csrr	a1,mepc
 800221e:	08001537          	lui	a0,0x8001
 8002222:	42850513          	addi	a0,a0,1064 # 8001428 <_sicode+0x15c>
 8002226:	6c1000ef          	jal	ra,80030e6 <iprintf>
D:/work/WIFI_GD32VW/Github_GD32VW55x/MSDK/plf/riscv/env/handlers.c:560
    printf("MTVAL  : 0x%lx\r\n", __RV_CSR_READ(CSR_MTVAL));
 800222a:	343025f3          	csrr	a1,mtval
 800222e:	08001537          	lui	a0,0x8001
 8002232:	43c50513          	addi	a0,a0,1084 # 800143c <_sicode+0x170>
 8002236:	6b1000ef          	jal	ra,80030e6 <iprintf>
D:/work/WIFI_GD32VW/Github_GD32VW55x/MSDK/plf/riscv/env/handlers.c:569
    Exception_DumpFrame(sp);
 800223a:	8522                	mv	a0,s0
 800223c:	3725                	jal	8002164 <Exception_DumpFrame>
D:/work/WIFI_GD32VW/Github_GD32VW55x/MSDK/plf/riscv/env/handlers.c:571 (discriminator 1)
    while (1);
 800223e:	a001                	j	800223e <nmi_handler+0x56>

08002240 <system_default_exception_handler>:
system_default_exception_handler():
D:/work/WIFI_GD32VW/Github_GD32VW55x/MSDK/plf/riscv/env/handlers.c:451
{
 8002240:	533002ef          	jal	t0,8002f72 <__riscv_save_0>
 8002244:	87aa                	mv	a5,a0
D:/work/WIFI_GD32VW/Github_GD32VW55x/MSDK/plf/riscv/env/handlers.c:454
    printf("MCAUSE : 0x%lx\r\n", mcause);
 8002246:	08001537          	lui	a0,0x8001
D:/work/WIFI_GD32VW/Github_GD32VW55x/MSDK/plf/riscv/env/handlers.c:451
{
 800224a:	842e                	mv	s0,a1
D:/work/WIFI_GD32VW/Github_GD32VW55x/MSDK/plf/riscv/env/handlers.c:454
    printf("MCAUSE : 0x%lx\r\n", mcause);
 800224c:	40050513          	addi	a0,a0,1024 # 8001400 <_sicode+0x134>
 8002250:	85be                	mv	a1,a5
 8002252:	695000ef          	jal	ra,80030e6 <iprintf>
D:/work/WIFI_GD32VW/Github_GD32VW55x/MSDK/plf/riscv/env/handlers.c:455
    printf("MDCAUSE: 0x%lx\r\n", __RV_CSR_READ(CSR_MDCAUSE));
 8002256:	7c9025f3          	csrr	a1,mdcause
 800225a:	08001537          	lui	a0,0x8001
 800225e:	41450513          	addi	a0,a0,1044 # 8001414 <_sicode+0x148>
 8002262:	685000ef          	jal	ra,80030e6 <iprintf>
D:/work/WIFI_GD32VW/Github_GD32VW55x/MSDK/plf/riscv/env/handlers.c:456
    printf("MEPC   : 0x%lx\r\n", __RV_CSR_READ(CSR_MEPC));
 8002266:	341025f3          	csrr	a1,mepc
 800226a:	08001537          	lui	a0,0x8001
 800226e:	42850513          	addi	a0,a0,1064 # 8001428 <_sicode+0x15c>
 8002272:	675000ef          	jal	ra,80030e6 <iprintf>
D:/work/WIFI_GD32VW/Github_GD32VW55x/MSDK/plf/riscv/env/handlers.c:457
    printf("MTVAL  : 0x%lx\r\n", __RV_CSR_READ(CSR_MTVAL));
 8002276:	343025f3          	csrr	a1,mtval
 800227a:	08001537          	lui	a0,0x8001
 800227e:	43c50513          	addi	a0,a0,1084 # 800143c <_sicode+0x170>
 8002282:	665000ef          	jal	ra,80030e6 <iprintf>
D:/work/WIFI_GD32VW/Github_GD32VW55x/MSDK/plf/riscv/env/handlers.c:470
    Exception_DumpFrame(sp);
 8002286:	8522                	mv	a0,s0
 8002288:	3df1                	jal	8002164 <Exception_DumpFrame>
D:/work/WIFI_GD32VW/Github_GD32VW55x/MSDK/plf/riscv/env/handlers.c:543 (discriminator 1)
    while (1);
 800228a:	a001                	j	800228a <system_default_exception_handler+0x4a>

0800228c <_premain_init>:
_premain_init():
D:/work/WIFI_GD32VW/Github_GD32VW55x/MSDK/plf/riscv/env/env_init.c:50
 * For RISC-V gnu toolchain, _init function might not be called
 * by __libc_init_array function, so we defined a new function
 * to do initialization
 */
void _premain_init(void)
{
 800228c:	4e7002ef          	jal	t0,8002f72 <__riscv_save_0>
EnableICache():
D:\work\WIFI_GD32VW\Github_GD32VW55x\MBL\project\eclipse\Debug/../../../../MSDK/plf/riscv/NMSIS/Core/Include/core_feature_cache.h:173
 * \sa
 * - \ref DisableICache
*/
__STATIC_FORCEINLINE void EnableICache(void)
{
    __RV_CSR_SET(CSR_MCACHE_CTL, CSR_MCACHE_CTL_IE);
 8002290:	4785                	li	a5,1
 8002292:	7ca7a073          	csrs	mcache_ctl,a5
_premain_init():
D:/work/WIFI_GD32VW/Github_GD32VW55x/MSDK/plf/riscv/env/env_init.c:56
    /* TODO: Add your own initialization code here, called before main */
    /* __ICACHE_PRESENT and __DCACHE_PRESENT are defined in demosoc.h */
    EnableICache();

    /* Initialize exception default handlers */
    Exception_Init();
 8002296:	35a1                	jal	80020de <Exception_Init>
D:/work/WIFI_GD32VW/Github_GD32VW55x/MSDK/plf/riscv/env/env_init.c:58
    /* Initialize NMI handlers */
    Exception_Register_EXC(NMI_EXCn, (unsigned long)nmi_handler);
 8002298:	080025b7          	lui	a1,0x8002
 800229c:	6505                	lui	a0,0x1
 800229e:	1e858593          	addi	a1,a1,488 # 80021e8 <nmi_handler>
 80022a2:	157d                	addi	a0,a0,-1
 80022a4:	3d91                	jal	80020f8 <Exception_Register_EXC>
D:/work/WIFI_GD32VW/Github_GD32VW55x/MSDK/plf/riscv/env/env_init.c:60
    /* ECLIC initialization, mainly MTH and NLBIT */
    eclic_level_threshold_set(0);
 80022a6:	4501                	li	a0,0
 80022a8:	3a49                	jal	8001c3a <eclic_level_threshold_set>
D:/work/WIFI_GD32VW/Github_GD32VW55x/MSDK/plf/riscv/env/env_init.c:61
    eclic_priority_group_set(ECLIC_PRIGROUP_LEVEL2_PRIO2);
 80022aa:	4509                	li	a0,2
 80022ac:	3a61                	jal	8001c44 <eclic_priority_group_set>
D:/work/WIFI_GD32VW/Github_GD32VW55x/MSDK/plf/riscv/env/env_init.c:62
    eclic_global_interrupt_enable();
 80022ae:	3251                	jal	8001c32 <eclic_global_interrupt_enable>
__disable_all_counter():
D:\work\WIFI_GD32VW\Github_GD32VW55x\MBL\project\eclipse\Debug/../../../../MSDK/plf/riscv/NMSIS/Core/Include/core_feature_base.h:858
 * \details
 * Set the IR and CY bit of MCOUNTINHIBIT to 1 to disable MINSTRET & MCYCLE Counter
 */
__STATIC_FORCEINLINE void __disable_all_counter(void)
{
    __RV_CSR_SET(CSR_MCOUNTINHIBIT, MCOUNTINHIBIT_IR|MCOUNTINHIBIT_CY);
 80022b0:	4795                	li	a5,5
 80022b2:	3207a073          	csrs	mcountinhibit,a5
_premain_init():
D:/work/WIFI_GD32VW/Github_GD32VW55x/MSDK/plf/riscv/env/env_init.c:66

    /* Before enter into main, disable mcycle and minstret counter by default to save power */
    __disable_all_counter();
}
 80022b6:	4e10006f          	j	8002f96 <__riscv_restore_0>

080022ba <_postmain_fini>:
_postmain_fini():
D:/work/WIFI_GD32VW/Github_GD32VW55x/MSDK/plf/riscv/env/env_init.c:80
 * to do initialization
 */
void _postmain_fini(int status)
{
    /* TODO: Add your own finishing code here, called after main */
}
 80022ba:	8082                	ret

080022bc <_init>:
_init():
D:/work/WIFI_GD32VW/Github_GD32VW55x/MSDK/plf/riscv/env/env_init.c:94
 * Please use \ref _premain_init function now
 */
void _init(void)
{
    /* Don't put any code here, please use _premain_init now */
}
 80022bc:	8082                	ret

080022be <_fini>:
_fini():
 80022be:	8082                	ret

080022c0 <rom_symbol_init>:
rom_symbol_init():
D:/work/WIFI_GD32VW/Github_GD32VW55x/MSDK/plf/src/init_rom_symbol.c:54
{
    return REG32(RCU + 0x00000138U);
}

void rom_symbol_init(void)
{
 80022c0:	483002ef          	jal	t0,8002f42 <__riscv_save_12>
ana_version_get():
D:/work/WIFI_GD32VW/Github_GD32VW55x/MSDK/plf/src/init_rom_symbol.c:50
    return REG32(RCU + 0x00000138U);
 80022c4:	400247b7          	lui	a5,0x40024
 80022c8:	9387a783          	lw	a5,-1736(a5) # 40023938 <_sp+0x2001f038>
rom_symbol_init():
D:/work/WIFI_GD32VW/Github_GD32VW55x/MSDK/plf/src/init_rom_symbol.c:54
{
 80022cc:	1141                	addi	sp,sp,-16
D:/work/WIFI_GD32VW/Github_GD32VW55x/MSDK/plf/src/init_rom_symbol.c:57
    int acut = (ana_version_get() == 0) ? 1 : 0;

    if (acut) {
 80022ce:	0ff7f793          	zext.b	a5,a5
 80022d2:	44079163          	bnez	a5,8002714 <rom_symbol_init+0x454>
D:/work/WIFI_GD32VW/Github_GD32VW55x/MSDK/plf/src/init_rom_symbol.c:58
        mbedtls_hwpka_flag_set(0
 80022d6:	07300513          	li	a0,115
 80022da:	03f5d097          	auipc	ra,0x3f5d
 80022de:	938080e7          	jalr	-1736(ra) # bf5ec12 <mbedtls_hwpka_flag_set>
D:/work/WIFI_GD32VW/Github_GD32VW55x/MSDK/plf/src/init_rom_symbol.c:87
#if (MBEDTLS_VERSION_NUMBER == 0x02110000)
    if (acut) {
#ifndef EXEC_USING_STD_PRINTF
        dbg_print(NOTICE, "Chip: GD32VW55x ACut\r\n");
#endif
        ecp_supported_curves = (mbedtls_ecp_curve_info *)0x0bf73eb8;
 80022e2:	0bf74537          	lui	a0,0xbf74
D:/work/WIFI_GD32VW/Github_GD32VW55x/MSDK/plf/src/init_rom_symbol.c:88
        mbedtls_ecdsa_free_fn = (void *)0x0bf715dc;
 80022e6:	0bf71337          	lui	t1,0xbf71
D:/work/WIFI_GD32VW/Github_GD32VW55x/MSDK/plf/src/init_rom_symbol.c:87
        ecp_supported_curves = (mbedtls_ecp_curve_info *)0x0bf73eb8;
 80022ea:	eb850293          	addi	t0,a0,-328 # bf73eb8 <mbedtls_mpi_mul_mpi_sw+0x56d8>
 80022ee:	20000e37          	lui	t3,0x20000
D:/work/WIFI_GD32VW/Github_GD32VW55x/MSDK/plf/src/init_rom_symbol.c:100
        mbedtls_ecdsa_sign_det_fn = (void *)0x0bf7108c;
        mbedtls_ecdsa_verify_fn = (void *)0x0bf71090;
        mbedtls_ecdsa_write_signature_fn = (void *)0x0bf71470;
        mbedtls_ecdsa_write_signature_det_fn = (void *)0x0bf71480;
        mbedtls_ecdsa_write_signature_restartable_fn = (void *)0x0bf713aa;
        mbedtls_ecp_check_privkey_fn = (void *)0x0bf72c3e;
 80022f2:	0bf73637          	lui	a2,0xbf73
D:/work/WIFI_GD32VW/Github_GD32VW55x/MSDK/plf/src/init_rom_symbol.c:88
        mbedtls_ecdsa_free_fn = (void *)0x0bf715dc;
 80022f6:	5dc30f93          	addi	t6,t1,1500 # bf715dc <mbedtls_mpi_mul_mpi_sw+0x2dfc>
D:/work/WIFI_GD32VW/Github_GD32VW55x/MSDK/plf/src/init_rom_symbol.c:87
        ecp_supported_curves = (mbedtls_ecp_curve_info *)0x0bf73eb8;
 80022fa:	365e2423          	sw	t0,872(t3) # 20000368 <ecp_supported_curves>
D:/work/WIFI_GD32VW/Github_GD32VW55x/MSDK/plf/src/init_rom_symbol.c:88
        mbedtls_ecdsa_free_fn = (void *)0x0bf715dc;
 80022fe:	20000e37          	lui	t3,0x20000
D:/work/WIFI_GD32VW/Github_GD32VW55x/MSDK/plf/src/init_rom_symbol.c:103
        mbedtls_ecp_check_pub_priv_fn = (void *)0x0bf73c8e;
        mbedtls_ecp_check_pubkey_fn = (void *)0x0bf72f6a;
        mbedtls_ecp_copy_fn = (void *)0x0bf72172;
 8002302:	0bf725b7          	lui	a1,0xbf72
D:/work/WIFI_GD32VW/Github_GD32VW55x/MSDK/plf/src/init_rom_symbol.c:100
        mbedtls_ecp_check_privkey_fn = (void *)0x0bf72c3e;
 8002306:	c3e60f13          	addi	t5,a2,-962 # bf72c3e <mbedtls_mpi_mul_mpi_sw+0x445e>
D:/work/WIFI_GD32VW/Github_GD32VW55x/MSDK/plf/src/init_rom_symbol.c:88
        mbedtls_ecdsa_free_fn = (void *)0x0bf715dc;
 800230a:	37fe2623          	sw	t6,876(t3) # 2000036c <mbedtls_ecdsa_free_fn>
D:/work/WIFI_GD32VW/Github_GD32VW55x/MSDK/plf/src/init_rom_symbol.c:100
        mbedtls_ecp_check_privkey_fn = (void *)0x0bf72c3e;
 800230e:	20000e37          	lui	t3,0x20000
D:/work/WIFI_GD32VW/Github_GD32VW55x/MSDK/plf/src/init_rom_symbol.c:103
        mbedtls_ecp_copy_fn = (void *)0x0bf72172;
 8002312:	17258e93          	addi	t4,a1,370 # bf72172 <mbedtls_mpi_mul_mpi_sw+0x3992>
D:/work/WIFI_GD32VW/Github_GD32VW55x/MSDK/plf/src/init_rom_symbol.c:100
        mbedtls_ecp_check_privkey_fn = (void *)0x0bf72c3e;
 8002316:	39ee2e23          	sw	t5,924(t3) # 2000039c <mbedtls_ecp_check_privkey_fn>
D:/work/WIFI_GD32VW/Github_GD32VW55x/MSDK/plf/src/init_rom_symbol.c:103
        mbedtls_ecp_copy_fn = (void *)0x0bf72172;
 800231a:	85d1a423          	sw	t4,-1976(gp) # 200003a8 <mbedtls_ecp_copy_fn>
D:/work/WIFI_GD32VW/Github_GD32VW55x/MSDK/plf/src/init_rom_symbol.c:89
        mbedtls_ecdsa_from_keypair_fn = (void *)0x0bf7158a;
 800231e:	58a30e93          	addi	t4,t1,1418
 8002322:	20000e37          	lui	t3,0x20000
 8002326:	37de2823          	sw	t4,880(t3) # 20000370 <mbedtls_ecdsa_from_keypair_fn>
D:/work/WIFI_GD32VW/Github_GD32VW55x/MSDK/plf/src/init_rom_symbol.c:90
        mbedtls_ecdsa_genkey_fn = (void *)0x0bf7154c;
 800232a:	54c30e93          	addi	t4,t1,1356
 800232e:	20000e37          	lui	t3,0x20000
 8002332:	37de2a23          	sw	t4,884(t3) # 20000374 <mbedtls_ecdsa_genkey_fn>
D:/work/WIFI_GD32VW/Github_GD32VW55x/MSDK/plf/src/init_rom_symbol.c:91
        mbedtls_ecdsa_init_fn = (void *)0x0bf715d8;
 8002336:	5d830e93          	addi	t4,t1,1496
 800233a:	20000e37          	lui	t3,0x20000
 800233e:	37de2c23          	sw	t4,888(t3) # 20000378 <mbedtls_ecdsa_init_fn>
D:/work/WIFI_GD32VW/Github_GD32VW55x/MSDK/plf/src/init_rom_symbol.c:92
        mbedtls_ecdsa_read_signature_fn = (void *)0x0bf71546;
 8002342:	54630e93          	addi	t4,t1,1350
 8002346:	20000e37          	lui	t3,0x20000
 800234a:	37de2e23          	sw	t4,892(t3) # 2000037c <mbedtls_ecdsa_read_signature_fn>
D:/work/WIFI_GD32VW/Github_GD32VW55x/MSDK/plf/src/init_rom_symbol.c:93
        mbedtls_ecdsa_read_signature_restartable_fn = (void *)0x0bf714a0;
 800234e:	4a030e93          	addi	t4,t1,1184
 8002352:	20000e37          	lui	t3,0x20000
 8002356:	39de2023          	sw	t4,896(t3) # 20000380 <mbedtls_ecdsa_read_signature_restartable_fn>
D:/work/WIFI_GD32VW/Github_GD32VW55x/MSDK/plf/src/init_rom_symbol.c:94
        mbedtls_ecdsa_sign_fn = (void *)0x0bf70bca;
 800235a:	bca30e93          	addi	t4,t1,-1078
 800235e:	20000e37          	lui	t3,0x20000
 8002362:	39de2423          	sw	t4,904(t3) # 20000388 <mbedtls_ecdsa_sign_fn>
D:/work/WIFI_GD32VW/Github_GD32VW55x/MSDK/plf/src/init_rom_symbol.c:95
        mbedtls_ecdsa_sign_det_fn = (void *)0x0bf7108c;
 8002366:	08c30e93          	addi	t4,t1,140
 800236a:	20000e37          	lui	t3,0x20000
 800236e:	39de2223          	sw	t4,900(t3) # 20000384 <mbedtls_ecdsa_sign_det_fn>
D:/work/WIFI_GD32VW/Github_GD32VW55x/MSDK/plf/src/init_rom_symbol.c:96
        mbedtls_ecdsa_verify_fn = (void *)0x0bf71090;
 8002372:	09030e93          	addi	t4,t1,144
 8002376:	20000e37          	lui	t3,0x20000
 800237a:	39de2623          	sw	t4,908(t3) # 2000038c <mbedtls_ecdsa_verify_fn>
D:/work/WIFI_GD32VW/Github_GD32VW55x/MSDK/plf/src/init_rom_symbol.c:97
        mbedtls_ecdsa_write_signature_fn = (void *)0x0bf71470;
 800237e:	47030e93          	addi	t4,t1,1136
 8002382:	20000e37          	lui	t3,0x20000
 8002386:	39de2a23          	sw	t4,916(t3) # 20000394 <mbedtls_ecdsa_write_signature_fn>
D:/work/WIFI_GD32VW/Github_GD32VW55x/MSDK/plf/src/init_rom_symbol.c:98
        mbedtls_ecdsa_write_signature_det_fn = (void *)0x0bf71480;
 800238a:	48030e93          	addi	t4,t1,1152
 800238e:	20000e37          	lui	t3,0x20000
 8002392:	39de2823          	sw	t4,912(t3) # 20000390 <mbedtls_ecdsa_write_signature_det_fn>
D:/work/WIFI_GD32VW/Github_GD32VW55x/MSDK/plf/src/init_rom_symbol.c:99
        mbedtls_ecdsa_write_signature_restartable_fn = (void *)0x0bf713aa;
 8002396:	3aa30313          	addi	t1,t1,938
 800239a:	20000e37          	lui	t3,0x20000
 800239e:	386e2c23          	sw	t1,920(t3) # 20000398 <mbedtls_ecdsa_write_signature_restartable_fn>
D:/work/WIFI_GD32VW/Github_GD32VW55x/MSDK/plf/src/init_rom_symbol.c:104
        mbedtls_ecp_curve_info_from_grp_id_fn = (void *)0x0bf71f7e;
 80023a2:	f7e58e13          	addi	t3,a1,-130
 80023a6:	85c1a623          	sw	t3,-1972(gp) # 200003ac <mbedtls_ecp_curve_info_from_grp_id_fn>
D:/work/WIFI_GD32VW/Github_GD32VW55x/MSDK/plf/src/init_rom_symbol.c:105
        mbedtls_ecp_curve_info_from_name_fn = (void *)0x0bf71fda;
 80023aa:	fda58e13          	addi	t3,a1,-38
 80023ae:	85c1a823          	sw	t3,-1968(gp) # 200003b0 <mbedtls_ecp_curve_info_from_name_fn>
D:/work/WIFI_GD32VW/Github_GD32VW55x/MSDK/plf/src/init_rom_symbol.c:106
        mbedtls_ecp_curve_info_from_tls_id_fn = (void *)0x0bf71faa;
 80023b2:	faa58e13          	addi	t3,a1,-86
 80023b6:	85c1aa23          	sw	t3,-1964(gp) # 200003b4 <mbedtls_ecp_curve_info_from_tls_id_fn>
D:/work/WIFI_GD32VW/Github_GD32VW55x/MSDK/plf/src/init_rom_symbol.c:107
        mbedtls_ecp_curve_list_fn = (void *)0x0bf71f0a;
 80023ba:	f0a58e13          	addi	t3,a1,-246
 80023be:	85c1ac23          	sw	t3,-1960(gp) # 200003b8 <mbedtls_ecp_curve_list_fn>
D:/work/WIFI_GD32VW/Github_GD32VW55x/MSDK/plf/src/init_rom_symbol.c:112
        mbedtls_ecp_gen_key_fn = (void *)0x0bf73c48;
        mbedtls_ecp_gen_keypair_fn = (void *)0x0bf73c38;
        mbedtls_ecp_gen_keypair_base_fn = (void *)0x0bf73bdc;
        mbedtls_ecp_gen_privkey_fn = (void *)0x0bf72cbc;
        mbedtls_ecp_group_copy_fn = (void *)0x0bf721b0;
 80023c2:	1b058e13          	addi	t3,a1,432
 80023c6:	87c1a623          	sw	t3,-1940(gp) # 200003cc <mbedtls_ecp_group_copy_fn>
D:/work/WIFI_GD32VW/Github_GD32VW55x/MSDK/plf/src/init_rom_symbol.c:113
        mbedtls_ecp_group_free_fn = (void *)0x0bf720cc;
 80023ca:	0cc58e13          	addi	t3,a1,204
 80023ce:	87c1a823          	sw	t3,-1936(gp) # 200003d0 <mbedtls_ecp_group_free_fn>
D:/work/WIFI_GD32VW/Github_GD32VW55x/MSDK/plf/src/init_rom_symbol.c:101
        mbedtls_ecp_check_pub_priv_fn = (void *)0x0bf73c8e;
 80023d2:	c8e50c13          	addi	s8,a0,-882
D:/work/WIFI_GD32VW/Github_GD32VW55x/MSDK/plf/src/init_rom_symbol.c:114
        mbedtls_ecp_group_init_fn = (void *)0x0bf72044;
 80023d6:	04458e13          	addi	t3,a1,68
 80023da:	87c1aa23          	sw	t3,-1932(gp) # 200003d4 <mbedtls_ecp_group_init_fn>
D:/work/WIFI_GD32VW/Github_GD32VW55x/MSDK/plf/src/init_rom_symbol.c:101
        mbedtls_ecp_check_pub_priv_fn = (void *)0x0bf73c8e;
 80023de:	8581a023          	sw	s8,-1984(gp) # 200003a0 <mbedtls_ecp_check_pub_priv_fn>
D:/work/WIFI_GD32VW/Github_GD32VW55x/MSDK/plf/src/init_rom_symbol.c:115
        mbedtls_ecp_grp_id_list_fn = (void *)0x0bf71f32;
 80023e2:	f3258e13          	addi	t3,a1,-206
D:/work/WIFI_GD32VW/Github_GD32VW55x/MSDK/plf/src/init_rom_symbol.c:108
        mbedtls_ecp_gen_key_fn = (void *)0x0bf73c48;
 80023e6:	c4850c13          	addi	s8,a0,-952
D:/work/WIFI_GD32VW/Github_GD32VW55x/MSDK/plf/src/init_rom_symbol.c:102
        mbedtls_ecp_check_pubkey_fn = (void *)0x0bf72f6a;
 80023ea:	f6a60d93          	addi	s11,a2,-150
D:/work/WIFI_GD32VW/Github_GD32VW55x/MSDK/plf/src/init_rom_symbol.c:115
        mbedtls_ecp_grp_id_list_fn = (void *)0x0bf71f32;
 80023ee:	87c1ac23          	sw	t3,-1928(gp) # 200003d8 <mbedtls_ecp_grp_id_list_fn>
D:/work/WIFI_GD32VW/Github_GD32VW55x/MSDK/plf/src/init_rom_symbol.c:108
        mbedtls_ecp_gen_key_fn = (void *)0x0bf73c48;
 80023f2:	8581ae23          	sw	s8,-1956(gp) # 200003bc <mbedtls_ecp_gen_key_fn>
D:/work/WIFI_GD32VW/Github_GD32VW55x/MSDK/plf/src/init_rom_symbol.c:117
        mbedtls_ecp_is_zero_fn = (void *)0x0bf728e4;
        mbedtls_ecp_keypair_free_fn = (void *)0x0bf7214c;
 80023f6:	14c58e13          	addi	t3,a1,332
D:/work/WIFI_GD32VW/Github_GD32VW55x/MSDK/plf/src/init_rom_symbol.c:109
        mbedtls_ecp_gen_keypair_fn = (void *)0x0bf73c38;
 80023fa:	c3850c13          	addi	s8,a0,-968
D:/work/WIFI_GD32VW/Github_GD32VW55x/MSDK/plf/src/init_rom_symbol.c:102
        mbedtls_ecp_check_pubkey_fn = (void *)0x0bf72f6a;
 80023fe:	85b1a223          	sw	s11,-1980(gp) # 200003a4 <mbedtls_ecp_check_pubkey_fn>
D:/work/WIFI_GD32VW/Github_GD32VW55x/MSDK/plf/src/init_rom_symbol.c:111
        mbedtls_ecp_gen_privkey_fn = (void *)0x0bf72cbc;
 8002402:	cbc60d93          	addi	s11,a2,-836
D:/work/WIFI_GD32VW/Github_GD32VW55x/MSDK/plf/src/init_rom_symbol.c:117
        mbedtls_ecp_keypair_free_fn = (void *)0x0bf7214c;
 8002406:	89c1a023          	sw	t3,-1920(gp) # 200003e0 <mbedtls_ecp_keypair_free_fn>
D:/work/WIFI_GD32VW/Github_GD32VW55x/MSDK/plf/src/init_rom_symbol.c:109
        mbedtls_ecp_gen_keypair_fn = (void *)0x0bf73c38;
 800240a:	8781a223          	sw	s8,-1948(gp) # 200003c4 <mbedtls_ecp_gen_keypair_fn>
D:/work/WIFI_GD32VW/Github_GD32VW55x/MSDK/plf/src/init_rom_symbol.c:118
        mbedtls_ecp_keypair_init_fn = (void *)0x0bf720a2;
 800240e:	0a258e13          	addi	t3,a1,162
D:/work/WIFI_GD32VW/Github_GD32VW55x/MSDK/plf/src/init_rom_symbol.c:110
        mbedtls_ecp_gen_keypair_base_fn = (void *)0x0bf73bdc;
 8002412:	bdc50c13          	addi	s8,a0,-1060
D:/work/WIFI_GD32VW/Github_GD32VW55x/MSDK/plf/src/init_rom_symbol.c:111
        mbedtls_ecp_gen_privkey_fn = (void *)0x0bf72cbc;
 8002416:	87b1a423          	sw	s11,-1944(gp) # 200003c8 <mbedtls_ecp_gen_privkey_fn>
D:/work/WIFI_GD32VW/Github_GD32VW55x/MSDK/plf/src/init_rom_symbol.c:116
        mbedtls_ecp_is_zero_fn = (void *)0x0bf728e4;
 800241a:	8e460d93          	addi	s11,a2,-1820
D:/work/WIFI_GD32VW/Github_GD32VW55x/MSDK/plf/src/init_rom_symbol.c:118
        mbedtls_ecp_keypair_init_fn = (void *)0x0bf720a2;
 800241e:	89c1a223          	sw	t3,-1916(gp) # 200003e4 <mbedtls_ecp_keypair_init_fn>
D:/work/WIFI_GD32VW/Github_GD32VW55x/MSDK/plf/src/init_rom_symbol.c:110
        mbedtls_ecp_gen_keypair_base_fn = (void *)0x0bf73bdc;
 8002422:	8781a023          	sw	s8,-1952(gp) # 200003c0 <mbedtls_ecp_gen_keypair_base_fn>
D:/work/WIFI_GD32VW/Github_GD32VW55x/MSDK/plf/src/init_rom_symbol.c:119
        mbedtls_ecp_mul_fn = (void *)0x0bf73bd6;
 8002426:	bd650c93          	addi	s9,a0,-1066
D:/work/WIFI_GD32VW/Github_GD32VW55x/MSDK/plf/src/init_rom_symbol.c:116
        mbedtls_ecp_is_zero_fn = (void *)0x0bf728e4;
 800242a:	87b1ae23          	sw	s11,-1924(gp) # 200003dc <mbedtls_ecp_is_zero_fn>
D:/work/WIFI_GD32VW/Github_GD32VW55x/MSDK/plf/src/init_rom_symbol.c:119
        mbedtls_ecp_mul_fn = (void *)0x0bf73bd6;
 800242e:	8991a423          	sw	s9,-1912(gp) # 200003e8 <mbedtls_ecp_mul_fn>
D:/work/WIFI_GD32VW/Github_GD32VW55x/MSDK/plf/src/init_rom_symbol.c:120
        mbedtls_ecp_mul_restartable_fn = (void *)0x0bf73220;
 8002432:	22060d13          	addi	s10,a2,544
D:/work/WIFI_GD32VW/Github_GD32VW55x/MSDK/plf/src/init_rom_symbol.c:121
        mbedtls_ecp_muladd_fn = (void *)0x0bf73e98;
 8002436:	e9850c13          	addi	s8,a0,-360
D:/work/WIFI_GD32VW/Github_GD32VW55x/MSDK/plf/src/init_rom_symbol.c:120
        mbedtls_ecp_mul_restartable_fn = (void *)0x0bf73220;
 800243a:	89a1a623          	sw	s10,-1908(gp) # 200003ec <mbedtls_ecp_mul_restartable_fn>
D:/work/WIFI_GD32VW/Github_GD32VW55x/MSDK/plf/src/init_rom_symbol.c:122
        mbedtls_ecp_muladd_restartable_fn = (void *)0x0bf73e7c;
 800243e:	e7c50b93          	addi	s7,a0,-388
D:/work/WIFI_GD32VW/Github_GD32VW55x/MSDK/plf/src/init_rom_symbol.c:121
        mbedtls_ecp_muladd_fn = (void *)0x0bf73e98;
 8002442:	8981a823          	sw	s8,-1904(gp) # 200003f0 <mbedtls_ecp_muladd_fn>
D:/work/WIFI_GD32VW/Github_GD32VW55x/MSDK/plf/src/init_rom_symbol.c:123
        mbedtls_ecp_point_cmp_fn = (void *)0x0bf728fa;
 8002446:	8fa60c93          	addi	s9,a2,-1798
D:/work/WIFI_GD32VW/Github_GD32VW55x/MSDK/plf/src/init_rom_symbol.c:122
        mbedtls_ecp_muladd_restartable_fn = (void *)0x0bf73e7c;
 800244a:	8971aa23          	sw	s7,-1900(gp) # 200003f4 <mbedtls_ecp_muladd_restartable_fn>
D:/work/WIFI_GD32VW/Github_GD32VW55x/MSDK/plf/src/init_rom_symbol.c:124
        mbedtls_ecp_point_free_fn = (void *)0x0bf720c4;
 800244e:	0c458b13          	addi	s6,a1,196
D:/work/WIFI_GD32VW/Github_GD32VW55x/MSDK/plf/src/init_rom_symbol.c:123
        mbedtls_ecp_point_cmp_fn = (void *)0x0bf728fa;
 8002452:	8991ac23          	sw	s9,-1896(gp) # 200003f8 <mbedtls_ecp_point_cmp_fn>
D:/work/WIFI_GD32VW/Github_GD32VW55x/MSDK/plf/src/init_rom_symbol.c:125
        mbedtls_ecp_point_init_fn = (void *)0x0bf72022;
 8002456:	02258a93          	addi	s5,a1,34
D:/work/WIFI_GD32VW/Github_GD32VW55x/MSDK/plf/src/init_rom_symbol.c:124
        mbedtls_ecp_point_free_fn = (void *)0x0bf720c4;
 800245a:	8961ae23          	sw	s6,-1892(gp) # 200003fc <mbedtls_ecp_point_free_fn>
D:/work/WIFI_GD32VW/Github_GD32VW55x/MSDK/plf/src/init_rom_symbol.c:126
        mbedtls_ecp_point_read_binary_fn = (void *)0x0bf72a54;
 800245e:	a5460c13          	addi	s8,a2,-1452
D:/work/WIFI_GD32VW/Github_GD32VW55x/MSDK/plf/src/init_rom_symbol.c:125
        mbedtls_ecp_point_init_fn = (void *)0x0bf72022;
 8002462:	8b51a023          	sw	s5,-1888(gp) # 20000400 <mbedtls_ecp_point_init_fn>
D:/work/WIFI_GD32VW/Github_GD32VW55x/MSDK/plf/src/init_rom_symbol.c:127
        mbedtls_ecp_point_read_string_fn = (void *)0x0bf72942;
 8002466:	94260d13          	addi	s10,a2,-1726
D:/work/WIFI_GD32VW/Github_GD32VW55x/MSDK/plf/src/init_rom_symbol.c:126
        mbedtls_ecp_point_read_binary_fn = (void *)0x0bf72a54;
 800246a:	8b81a223          	sw	s8,-1884(gp) # 20000404 <mbedtls_ecp_point_read_binary_fn>
D:/work/WIFI_GD32VW/Github_GD32VW55x/MSDK/plf/src/init_rom_symbol.c:128
        mbedtls_ecp_point_write_binary_fn = (void *)0x0bf72986;
 800246e:	98660b93          	addi	s7,a2,-1658
D:/work/WIFI_GD32VW/Github_GD32VW55x/MSDK/plf/src/init_rom_symbol.c:127
        mbedtls_ecp_point_read_string_fn = (void *)0x0bf72942;
 8002472:	8ba1a423          	sw	s10,-1880(gp) # 20000408 <mbedtls_ecp_point_read_string_fn>
D:/work/WIFI_GD32VW/Github_GD32VW55x/MSDK/plf/src/init_rom_symbol.c:128
        mbedtls_ecp_point_write_binary_fn = (void *)0x0bf72986;
 8002476:	8b71a623          	sw	s7,-1876(gp) # 2000040c <mbedtls_ecp_point_write_binary_fn>
D:/work/WIFI_GD32VW/Github_GD32VW55x/MSDK/plf/src/init_rom_symbol.c:129
        mbedtls_ecp_set_zero_fn = (void *)0x0bf721b6;
 800247a:	1b658593          	addi	a1,a1,438
D:/work/WIFI_GD32VW/Github_GD32VW55x/MSDK/plf/src/init_rom_symbol.c:130
        mbedtls_ecp_tls_read_group_fn = (void *)0x0bf72bc4;
 800247e:	bc460b13          	addi	s6,a2,-1084
D:/work/WIFI_GD32VW/Github_GD32VW55x/MSDK/plf/src/init_rom_symbol.c:129
        mbedtls_ecp_set_zero_fn = (void *)0x0bf721b6;
 8002482:	8ab1a823          	sw	a1,-1872(gp) # 20000410 <mbedtls_ecp_set_zero_fn>
D:/work/WIFI_GD32VW/Github_GD32VW55x/MSDK/plf/src/init_rom_symbol.c:131
        mbedtls_ecp_tls_read_group_id_fn = (void *)0x0bf72b5c;
 8002486:	b5c60c93          	addi	s9,a2,-1188
D:/work/WIFI_GD32VW/Github_GD32VW55x/MSDK/plf/src/init_rom_symbol.c:130
        mbedtls_ecp_tls_read_group_fn = (void *)0x0bf72bc4;
 800248a:	8b61aa23          	sw	s6,-1868(gp) # 20000414 <mbedtls_ecp_tls_read_group_fn>
D:/work/WIFI_GD32VW/Github_GD32VW55x/MSDK/plf/src/init_rom_symbol.c:132
        mbedtls_ecp_tls_read_point_fn = (void *)0x0bf72af2;
 800248e:	af260c13          	addi	s8,a2,-1294
D:/work/WIFI_GD32VW/Github_GD32VW55x/MSDK/plf/src/init_rom_symbol.c:131
        mbedtls_ecp_tls_read_group_id_fn = (void *)0x0bf72b5c;
 8002492:	8b91ac23          	sw	s9,-1864(gp) # 20000418 <mbedtls_ecp_tls_read_group_id_fn>
D:/work/WIFI_GD32VW/Github_GD32VW55x/MSDK/plf/src/init_rom_symbol.c:133
        mbedtls_ecp_tls_write_group_fn = (void *)0x0bf72be4;
 8002496:	be460a93          	addi	s5,a2,-1052
D:/work/WIFI_GD32VW/Github_GD32VW55x/MSDK/plf/src/init_rom_symbol.c:132
        mbedtls_ecp_tls_read_point_fn = (void *)0x0bf72af2;
 800249a:	8b81ae23          	sw	s8,-1860(gp) # 2000041c <mbedtls_ecp_tls_read_point_fn>
D:/work/WIFI_GD32VW/Github_GD32VW55x/MSDK/plf/src/init_rom_symbol.c:135
        mbedtls_ecp_tls_write_point_fn = (void *)0x0bf72b26;
        mbedtls_internal_md5_process_fn = (void *)0x0bf76912;
 800249e:	0bf77737          	lui	a4,0xbf77
D:/work/WIFI_GD32VW/Github_GD32VW55x/MSDK/plf/src/init_rom_symbol.c:133
        mbedtls_ecp_tls_write_group_fn = (void *)0x0bf72be4;
 80024a2:	8d51a023          	sw	s5,-1856(gp) # 20000420 <mbedtls_ecp_tls_write_group_fn>
D:/work/WIFI_GD32VW/Github_GD32VW55x/MSDK/plf/src/init_rom_symbol.c:134
        mbedtls_ecp_tls_write_point_fn = (void *)0x0bf72b26;
 80024a6:	b2660613          	addi	a2,a2,-1242
D:/work/WIFI_GD32VW/Github_GD32VW55x/MSDK/plf/src/init_rom_symbol.c:136
        mbedtls_internal_sha256_process_fn = (void *)0x0bf7674e;
 80024aa:	0bf767b7          	lui	a5,0xbf76
D:/work/WIFI_GD32VW/Github_GD32VW55x/MSDK/plf/src/init_rom_symbol.c:135
        mbedtls_internal_md5_process_fn = (void *)0x0bf76912;
 80024ae:	91270a13          	addi	s4,a4,-1774 # bf76912 <mbedtls_mpi_mul_mpi_sw+0x8132>
D:/work/WIFI_GD32VW/Github_GD32VW55x/MSDK/plf/src/init_rom_symbol.c:134
        mbedtls_ecp_tls_write_point_fn = (void *)0x0bf72b26;
 80024b2:	8cc1a223          	sw	a2,-1852(gp) # 20000424 <mbedtls_ecp_tls_write_point_fn>
D:/work/WIFI_GD32VW/Github_GD32VW55x/MSDK/plf/src/init_rom_symbol.c:136
        mbedtls_internal_sha256_process_fn = (void *)0x0bf7674e;
 80024b6:	74e78993          	addi	s3,a5,1870 # bf7674e <mbedtls_mpi_mul_mpi_sw+0x7f6e>
D:/work/WIFI_GD32VW/Github_GD32VW55x/MSDK/plf/src/init_rom_symbol.c:135
        mbedtls_internal_md5_process_fn = (void *)0x0bf76912;
 80024ba:	8d41a423          	sw	s4,-1848(gp) # 20000428 <mbedtls_internal_md5_process_fn>
D:/work/WIFI_GD32VW/Github_GD32VW55x/MSDK/plf/src/init_rom_symbol.c:137
        mbedtls_md5_fn = (void *)0x0bf7778e;
 80024be:	78e70913          	addi	s2,a4,1934
D:/work/WIFI_GD32VW/Github_GD32VW55x/MSDK/plf/src/init_rom_symbol.c:136
        mbedtls_internal_sha256_process_fn = (void *)0x0bf7674e;
 80024c2:	8d31a623          	sw	s3,-1844(gp) # 2000042c <mbedtls_internal_sha256_process_fn>
D:/work/WIFI_GD32VW/Github_GD32VW55x/MSDK/plf/src/init_rom_symbol.c:138
        mbedtls_md5_clone_fn = (void *)0x0bf768a4;
 80024c6:	8a470493          	addi	s1,a4,-1884
D:/work/WIFI_GD32VW/Github_GD32VW55x/MSDK/plf/src/init_rom_symbol.c:137
        mbedtls_md5_fn = (void *)0x0bf7778e;
 80024ca:	8d21ae23          	sw	s2,-1828(gp) # 2000043c <mbedtls_md5_fn>
D:/work/WIFI_GD32VW/Github_GD32VW55x/MSDK/plf/src/init_rom_symbol.c:139
        mbedtls_md5_finish_fn = (void *)0x0bf77758;
 80024ce:	75870413          	addi	s0,a4,1880
D:/work/WIFI_GD32VW/Github_GD32VW55x/MSDK/plf/src/init_rom_symbol.c:138
        mbedtls_md5_clone_fn = (void *)0x0bf768a4;
 80024d2:	8c91a823          	sw	s1,-1840(gp) # 20000430 <mbedtls_md5_clone_fn>
D:/work/WIFI_GD32VW/Github_GD32VW55x/MSDK/plf/src/init_rom_symbol.c:140
        mbedtls_md5_finish_ret_fn = (void *)0x0bf7765a;
 80024d6:	65a70393          	addi	t2,a4,1626
D:/work/WIFI_GD32VW/Github_GD32VW55x/MSDK/plf/src/init_rom_symbol.c:139
        mbedtls_md5_finish_fn = (void *)0x0bf77758;
 80024da:	8c81aa23          	sw	s0,-1836(gp) # 20000434 <mbedtls_md5_finish_fn>
D:/work/WIFI_GD32VW/Github_GD32VW55x/MSDK/plf/src/init_rom_symbol.c:141
        mbedtls_md5_free_fn = (void *)0x0bf76898;
 80024de:	89870293          	addi	t0,a4,-1896
D:/work/WIFI_GD32VW/Github_GD32VW55x/MSDK/plf/src/init_rom_symbol.c:140
        mbedtls_md5_finish_ret_fn = (void *)0x0bf7765a;
 80024e2:	8c71ac23          	sw	t2,-1832(gp) # 20000438 <mbedtls_md5_finish_ret_fn>
D:/work/WIFI_GD32VW/Github_GD32VW55x/MSDK/plf/src/init_rom_symbol.c:142
        mbedtls_md5_init_fn = (void *)0x0bf7688e;
 80024e6:	88e70f93          	addi	t6,a4,-1906
D:/work/WIFI_GD32VW/Github_GD32VW55x/MSDK/plf/src/init_rom_symbol.c:141
        mbedtls_md5_free_fn = (void *)0x0bf76898;
 80024ea:	8e51a023          	sw	t0,-1824(gp) # 20000440 <mbedtls_md5_free_fn>
D:/work/WIFI_GD32VW/Github_GD32VW55x/MSDK/plf/src/init_rom_symbol.c:143
        mbedtls_md5_process_fn = (void *)0x0bf77644;
 80024ee:	64470f13          	addi	t5,a4,1604
D:/work/WIFI_GD32VW/Github_GD32VW55x/MSDK/plf/src/init_rom_symbol.c:142
        mbedtls_md5_init_fn = (void *)0x0bf7688e;
 80024f2:	8ff1a223          	sw	t6,-1820(gp) # 20000444 <mbedtls_md5_init_fn>
D:/work/WIFI_GD32VW/Github_GD32VW55x/MSDK/plf/src/init_rom_symbol.c:144
        mbedtls_md5_ret_fn = (void *)0x0bf7775c;
 80024f6:	75c70e93          	addi	t4,a4,1884
D:/work/WIFI_GD32VW/Github_GD32VW55x/MSDK/plf/src/init_rom_symbol.c:143
        mbedtls_md5_process_fn = (void *)0x0bf77644;
 80024fa:	8fe1a423          	sw	t5,-1816(gp) # 20000448 <mbedtls_md5_process_fn>
D:/work/WIFI_GD32VW/Github_GD32VW55x/MSDK/plf/src/init_rom_symbol.c:145
        mbedtls_md5_starts_fn = (void *)0x0bf768e0;
 80024fe:	8e070e13          	addi	t3,a4,-1824
D:/work/WIFI_GD32VW/Github_GD32VW55x/MSDK/plf/src/init_rom_symbol.c:144
        mbedtls_md5_ret_fn = (void *)0x0bf7775c;
 8002502:	8fd1a623          	sw	t4,-1812(gp) # 2000044c <mbedtls_md5_ret_fn>
D:/work/WIFI_GD32VW/Github_GD32VW55x/MSDK/plf/src/init_rom_symbol.c:146
        mbedtls_md5_starts_ret_fn = (void *)0x0bf768ac;
 8002506:	8ac70313          	addi	t1,a4,-1876
D:/work/WIFI_GD32VW/Github_GD32VW55x/MSDK/plf/src/init_rom_symbol.c:145
        mbedtls_md5_starts_fn = (void *)0x0bf768e0;
 800250a:	8fc1a823          	sw	t3,-1808(gp) # 20000450 <mbedtls_md5_starts_fn>
D:/work/WIFI_GD32VW/Github_GD32VW55x/MSDK/plf/src/init_rom_symbol.c:147
        mbedtls_md5_update_fn = (void *)0x0bf77652;
 800250e:	0bf775b7          	lui	a1,0xbf77
D:/work/WIFI_GD32VW/Github_GD32VW55x/MSDK/plf/src/init_rom_symbol.c:146
        mbedtls_md5_starts_ret_fn = (void *)0x0bf768ac;
 8002512:	8e61aa23          	sw	t1,-1804(gp) # 20000454 <mbedtls_md5_starts_ret_fn>
D:/work/WIFI_GD32VW/Github_GD32VW55x/MSDK/plf/src/init_rom_symbol.c:147
        mbedtls_md5_update_fn = (void *)0x0bf77652;
 8002516:	65258413          	addi	s0,a1,1618 # bf77652 <mbedtls_mpi_mul_mpi_sw+0x8e72>
 800251a:	8e81ac23          	sw	s0,-1800(gp) # 20000458 <mbedtls_md5_update_fn>
D:/work/WIFI_GD32VW/Github_GD32VW55x/MSDK/plf/src/init_rom_symbol.c:148
        mbedtls_md5_update_ret_fn = (void *)0x0bf77648;
 800251e:	64858593          	addi	a1,a1,1608
 8002522:	8eb1ae23          	sw	a1,-1796(gp) # 2000045c <mbedtls_md5_update_ret_fn>
D:/work/WIFI_GD32VW/Github_GD32VW55x/MSDK/plf/src/init_rom_symbol.c:149
        mbedtls_mpi_div_int_fn = (void *)0x0bf6f20a;
 8002526:	0bf6f5b7          	lui	a1,0xbf6f
 800252a:	20a58413          	addi	s0,a1,522 # bf6f20a <mbedtls_mpi_mul_mpi_sw+0xa2a>
 800252e:	9081a023          	sw	s0,-1792(gp) # 20000460 <mbedtls_mpi_div_int_fn>
D:/work/WIFI_GD32VW/Github_GD32VW55x/MSDK/plf/src/init_rom_symbol.c:150
        mbedtls_mpi_div_mpi_fn = (void *)0x0bf6ed1e;
 8002532:	d1e58413          	addi	s0,a1,-738
 8002536:	9081a223          	sw	s0,-1788(gp) # 20000464 <mbedtls_mpi_div_mpi_fn>
D:/work/WIFI_GD32VW/Github_GD32VW55x/MSDK/plf/src/init_rom_symbol.c:151
        mbedtls_mpi_exp_mod_fn = (void *)0x0bf6fb5c;
 800253a:	0bf70437          	lui	s0,0xbf70
 800253e:	b5c40493          	addi	s1,s0,-1188 # bf6fb5c <mbedtls_mpi_mul_mpi_sw+0x137c>
 8002542:	9091a423          	sw	s1,-1784(gp) # 20000468 <mbedtls_mpi_exp_mod_fn>
D:/work/WIFI_GD32VW/Github_GD32VW55x/MSDK/plf/src/init_rom_symbol.c:168
        mbedtls_mpi_read_string_fn = (void *)0x0bf6eaec;
        mbedtls_mpi_write_string_fn = (void *)0x0bf6f304;
        mbedtls_rsa_check_privkey_fn = (void *)0x0bf74972;
        mbedtls_rsa_check_pub_priv_fn = (void *)0x0bf74c08;
        mbedtls_rsa_check_pubkey_fn = (void *)0x0bf74910;
        mbedtls_rsa_complete_fn = (void *)0x0bf74490;
 8002546:	49050f93          	addi	t6,a0,1168
D:/work/WIFI_GD32VW/Github_GD32VW55x/MSDK/plf/src/init_rom_symbol.c:170
        mbedtls_rsa_copy_fn = (void *)0x0bf76132;
        mbedtls_rsa_export_fn = (void *)0x0bf74728;
 800254a:	72850e93          	addi	t4,a0,1832
D:/work/WIFI_GD32VW/Github_GD32VW55x/MSDK/plf/src/init_rom_symbol.c:172
        mbedtls_rsa_export_crt_fn = (void *)0x0bf7482a;
        mbedtls_rsa_export_raw_fn = (void *)0x0bf745f0;
 800254e:	5f050313          	addi	t1,a0,1520
D:/work/WIFI_GD32VW/Github_GD32VW55x/MSDK/plf/src/init_rom_symbol.c:176
        mbedtls_rsa_free_fn = (void *)0x0bf7623c;
        mbedtls_rsa_gen_key_fn = (void *)0x0bf749e2;
        mbedtls_rsa_get_len_fn = (void *)0x0bf7490c;
        mbedtls_rsa_import_fn = (void *)0x0bf74364;
 8002552:	36450d13          	addi	s10,a0,868
D:/work/WIFI_GD32VW/Github_GD32VW55x/MSDK/plf/src/init_rom_symbol.c:177
        mbedtls_rsa_import_raw_fn = (void *)0x0bf743f6;
 8002556:	3f650513          	addi	a0,a0,1014
 800255a:	c62a                	sw	a0,12(sp)
D:/work/WIFI_GD32VW/Github_GD32VW55x/MSDK/plf/src/init_rom_symbol.c:152
        mbedtls_mpi_exp_mod_sw_fn = (void *)0x0bf6f54c;
 800255c:	54c58593          	addi	a1,a1,1356
 8002560:	90b1a623          	sw	a1,-1780(gp) # 2000046c <mbedtls_mpi_exp_mod_sw_fn>
D:/work/WIFI_GD32VW/Github_GD32VW55x/MSDK/plf/src/init_rom_symbol.c:153
        mbedtls_mpi_fill_random_fn = (void *)0x0bf6fee4;
 8002564:	0bf705b7          	lui	a1,0xbf70
D:/work/WIFI_GD32VW/Github_GD32VW55x/MSDK/plf/src/init_rom_symbol.c:151
        mbedtls_mpi_exp_mod_fn = (void *)0x0bf6fb5c;
 8002568:	0bf708b7          	lui	a7,0xbf70
D:/work/WIFI_GD32VW/Github_GD32VW55x/MSDK/plf/src/init_rom_symbol.c:153
        mbedtls_mpi_fill_random_fn = (void *)0x0bf6fee4;
 800256c:	ee458593          	addi	a1,a1,-284 # bf6fee4 <mbedtls_mpi_mul_mpi_sw+0x1704>
D:/work/WIFI_GD32VW/Github_GD32VW55x/MSDK/plf/src/init_rom_symbol.c:154
        mbedtls_mpi_gcd_fn = (void *)0x0bf6fcec;
 8002570:	cec88c13          	addi	s8,a7,-788 # bf6fcec <mbedtls_mpi_mul_mpi_sw+0x150c>
D:/work/WIFI_GD32VW/Github_GD32VW55x/MSDK/plf/src/init_rom_symbol.c:153
        mbedtls_mpi_fill_random_fn = (void *)0x0bf6fee4;
 8002574:	90b1a823          	sw	a1,-1776(gp) # 20000470 <mbedtls_mpi_fill_random_fn>
D:/work/WIFI_GD32VW/Github_GD32VW55x/MSDK/plf/src/init_rom_symbol.c:155
        mbedtls_mpi_gen_prime_fn = (void *)0x0bf705e2;
 8002578:	5e288b93          	addi	s7,a7,1506
D:/work/WIFI_GD32VW/Github_GD32VW55x/MSDK/plf/src/init_rom_symbol.c:154
        mbedtls_mpi_gcd_fn = (void *)0x0bf6fcec;
 800257c:	9181aa23          	sw	s8,-1772(gp) # 20000474 <mbedtls_mpi_gcd_fn>
D:/work/WIFI_GD32VW/Github_GD32VW55x/MSDK/plf/src/init_rom_symbol.c:156
        mbedtls_mpi_inv_mod_fn = (void *)0x0bf70212;
 8002580:	21288b13          	addi	s6,a7,530
D:/work/WIFI_GD32VW/Github_GD32VW55x/MSDK/plf/src/init_rom_symbol.c:155
        mbedtls_mpi_gen_prime_fn = (void *)0x0bf705e2;
 8002584:	9171ac23          	sw	s7,-1768(gp) # 20000478 <mbedtls_mpi_gen_prime_fn>
D:/work/WIFI_GD32VW/Github_GD32VW55x/MSDK/plf/src/init_rom_symbol.c:157
        mbedtls_mpi_is_prime_fn = (void *)0x0bf705d6;
 8002588:	5d688a93          	addi	s5,a7,1494
D:/work/WIFI_GD32VW/Github_GD32VW55x/MSDK/plf/src/init_rom_symbol.c:156
        mbedtls_mpi_inv_mod_fn = (void *)0x0bf70212;
 800258c:	9161ae23          	sw	s6,-1764(gp) # 2000047c <mbedtls_mpi_inv_mod_fn>
D:/work/WIFI_GD32VW/Github_GD32VW55x/MSDK/plf/src/init_rom_symbol.c:149
        mbedtls_mpi_div_int_fn = (void *)0x0bf6f20a;
 8002590:	0bf6f837          	lui	a6,0xbf6f
D:/work/WIFI_GD32VW/Github_GD32VW55x/MSDK/plf/src/init_rom_symbol.c:157
        mbedtls_mpi_is_prime_fn = (void *)0x0bf705d6;
 8002594:	9351a223          	sw	s5,-1756(gp) # 20000484 <mbedtls_mpi_is_prime_fn>
D:/work/WIFI_GD32VW/Github_GD32VW55x/MSDK/plf/src/init_rom_symbol.c:158
        mbedtls_mpi_is_prime_ext_fn = (void *)0x0bf70534;
 8002598:	53488893          	addi	a7,a7,1332
D:/work/WIFI_GD32VW/Github_GD32VW55x/MSDK/plf/src/init_rom_symbol.c:159
        mbedtls_mpi_mod_int_fn = (void *)0x0bf6f2d0;
 800259c:	2d080a13          	addi	s4,a6,720 # bf6f2d0 <mbedtls_mpi_mul_mpi_sw+0xaf0>
D:/work/WIFI_GD32VW/Github_GD32VW55x/MSDK/plf/src/init_rom_symbol.c:158
        mbedtls_mpi_is_prime_ext_fn = (void *)0x0bf70534;
 80025a0:	9311a023          	sw	a7,-1760(gp) # 20000480 <mbedtls_mpi_is_prime_ext_fn>
D:/work/WIFI_GD32VW/Github_GD32VW55x/MSDK/plf/src/init_rom_symbol.c:160
        mbedtls_mpi_mod_mpi_fn = (void *)0x0bf6f234;
 80025a4:	23480993          	addi	s3,a6,564
D:/work/WIFI_GD32VW/Github_GD32VW55x/MSDK/plf/src/init_rom_symbol.c:159
        mbedtls_mpi_mod_int_fn = (void *)0x0bf6f2d0;
 80025a8:	9341a423          	sw	s4,-1752(gp) # 20000488 <mbedtls_mpi_mod_int_fn>
D:/work/WIFI_GD32VW/Github_GD32VW55x/MSDK/plf/src/init_rom_symbol.c:161
        mbedtls_mpi_mul_int_fn = (void *)0x0bf6ed04;
 80025ac:	d0480913          	addi	s2,a6,-764
D:/work/WIFI_GD32VW/Github_GD32VW55x/MSDK/plf/src/init_rom_symbol.c:160
        mbedtls_mpi_mod_mpi_fn = (void *)0x0bf6f234;
 80025b0:	9331a623          	sw	s3,-1748(gp) # 2000048c <mbedtls_mpi_mod_mpi_fn>
D:/work/WIFI_GD32VW/Github_GD32VW55x/MSDK/plf/src/init_rom_symbol.c:162
        mbedtls_mpi_mul_mpi_fn = (void *)0x0bf6ead6;
 80025b4:	ad680493          	addi	s1,a6,-1322
D:/work/WIFI_GD32VW/Github_GD32VW55x/MSDK/plf/src/init_rom_symbol.c:161
        mbedtls_mpi_mul_int_fn = (void *)0x0bf6ed04;
 80025b8:	9321a823          	sw	s2,-1744(gp) # 20000490 <mbedtls_mpi_mul_int_fn>
D:/work/WIFI_GD32VW/Github_GD32VW55x/MSDK/plf/src/init_rom_symbol.c:164
        mbedtls_mpi_write_string_fn = (void *)0x0bf6f304;
 80025bc:	30480d93          	addi	s11,a6,772
D:/work/WIFI_GD32VW/Github_GD32VW55x/MSDK/plf/src/init_rom_symbol.c:162
        mbedtls_mpi_mul_mpi_fn = (void *)0x0bf6ead6;
 80025c0:	9291aa23          	sw	s1,-1740(gp) # 20000494 <mbedtls_mpi_mul_mpi_fn>
D:/work/WIFI_GD32VW/Github_GD32VW55x/MSDK/plf/src/init_rom_symbol.c:163
        mbedtls_mpi_read_string_fn = (void *)0x0bf6eaec;
 80025c4:	aec80813          	addi	a6,a6,-1300
D:/work/WIFI_GD32VW/Github_GD32VW55x/MSDK/plf/src/init_rom_symbol.c:165
        mbedtls_rsa_check_privkey_fn = (void *)0x0bf74972;
 80025c8:	0bf756b7          	lui	a3,0xbf75
D:/work/WIFI_GD32VW/Github_GD32VW55x/MSDK/plf/src/init_rom_symbol.c:163
        mbedtls_mpi_read_string_fn = (void *)0x0bf6eaec;
 80025cc:	9301ac23          	sw	a6,-1736(gp) # 20000498 <mbedtls_mpi_read_string_fn>
D:/work/WIFI_GD32VW/Github_GD32VW55x/MSDK/plf/src/init_rom_symbol.c:165
        mbedtls_rsa_check_privkey_fn = (void *)0x0bf74972;
 80025d0:	97268413          	addi	s0,a3,-1678 # bf74972 <mbedtls_mpi_mul_mpi_sw+0x6192>
D:/work/WIFI_GD32VW/Github_GD32VW55x/MSDK/plf/src/init_rom_symbol.c:164
        mbedtls_mpi_write_string_fn = (void *)0x0bf6f304;
 80025d4:	93b1ae23          	sw	s11,-1732(gp) # 2000049c <mbedtls_mpi_write_string_fn>
D:/work/WIFI_GD32VW/Github_GD32VW55x/MSDK/plf/src/init_rom_symbol.c:166
        mbedtls_rsa_check_pub_priv_fn = (void *)0x0bf74c08;
 80025d8:	c0868393          	addi	t2,a3,-1016
D:/work/WIFI_GD32VW/Github_GD32VW55x/MSDK/plf/src/init_rom_symbol.c:165
        mbedtls_rsa_check_privkey_fn = (void *)0x0bf74972;
 80025dc:	9481a023          	sw	s0,-1728(gp) # 200004a0 <mbedtls_rsa_check_privkey_fn>
D:/work/WIFI_GD32VW/Github_GD32VW55x/MSDK/plf/src/init_rom_symbol.c:167
        mbedtls_rsa_check_pubkey_fn = (void *)0x0bf74910;
 80025e0:	91068293          	addi	t0,a3,-1776
D:/work/WIFI_GD32VW/Github_GD32VW55x/MSDK/plf/src/init_rom_symbol.c:166
        mbedtls_rsa_check_pub_priv_fn = (void *)0x0bf74c08;
 80025e4:	9471a223          	sw	t2,-1724(gp) # 200004a4 <mbedtls_rsa_check_pub_priv_fn>
D:/work/WIFI_GD32VW/Github_GD32VW55x/MSDK/plf/src/init_rom_symbol.c:167
        mbedtls_rsa_check_pubkey_fn = (void *)0x0bf74910;
 80025e8:	9451a423          	sw	t0,-1720(gp) # 200004a8 <mbedtls_rsa_check_pubkey_fn>
D:/work/WIFI_GD32VW/Github_GD32VW55x/MSDK/plf/src/init_rom_symbol.c:169
        mbedtls_rsa_copy_fn = (void *)0x0bf76132;
 80025ec:	13278f13          	addi	t5,a5,306
D:/work/WIFI_GD32VW/Github_GD32VW55x/MSDK/plf/src/init_rom_symbol.c:168
        mbedtls_rsa_complete_fn = (void *)0x0bf74490;
 80025f0:	95f1a623          	sw	t6,-1716(gp) # 200004ac <mbedtls_rsa_complete_fn>
D:/work/WIFI_GD32VW/Github_GD32VW55x/MSDK/plf/src/init_rom_symbol.c:169
        mbedtls_rsa_copy_fn = (void *)0x0bf76132;
 80025f4:	95e1a823          	sw	t5,-1712(gp) # 200004b0 <mbedtls_rsa_copy_fn>
D:/work/WIFI_GD32VW/Github_GD32VW55x/MSDK/plf/src/init_rom_symbol.c:171
        mbedtls_rsa_export_crt_fn = (void *)0x0bf7482a;
 80025f8:	82a68e13          	addi	t3,a3,-2006
D:/work/WIFI_GD32VW/Github_GD32VW55x/MSDK/plf/src/init_rom_symbol.c:170
        mbedtls_rsa_export_fn = (void *)0x0bf74728;
 80025fc:	95d1ac23          	sw	t4,-1704(gp) # 200004b8 <mbedtls_rsa_export_fn>
D:/work/WIFI_GD32VW/Github_GD32VW55x/MSDK/plf/src/init_rom_symbol.c:171
        mbedtls_rsa_export_crt_fn = (void *)0x0bf7482a;
 8002600:	95c1aa23          	sw	t3,-1708(gp) # 200004b4 <mbedtls_rsa_export_crt_fn>
D:/work/WIFI_GD32VW/Github_GD32VW55x/MSDK/plf/src/init_rom_symbol.c:173
        mbedtls_rsa_free_fn = (void *)0x0bf7623c;
 8002604:	0bf765b7          	lui	a1,0xbf76
D:/work/WIFI_GD32VW/Github_GD32VW55x/MSDK/plf/src/init_rom_symbol.c:172
        mbedtls_rsa_export_raw_fn = (void *)0x0bf745f0;
 8002608:	9461ae23          	sw	t1,-1700(gp) # 200004bc <mbedtls_rsa_export_raw_fn>
D:/work/WIFI_GD32VW/Github_GD32VW55x/MSDK/plf/src/init_rom_symbol.c:173
        mbedtls_rsa_free_fn = (void *)0x0bf7623c;
 800260c:	23c58593          	addi	a1,a1,572 # bf7623c <mbedtls_mpi_mul_mpi_sw+0x7a5c>
D:/work/WIFI_GD32VW/Github_GD32VW55x/MSDK/plf/src/init_rom_symbol.c:174
        mbedtls_rsa_gen_key_fn = (void *)0x0bf749e2;
 8002610:	9e268613          	addi	a2,a3,-1566
D:/work/WIFI_GD32VW/Github_GD32VW55x/MSDK/plf/src/init_rom_symbol.c:173
        mbedtls_rsa_free_fn = (void *)0x0bf7623c;
 8002614:	96b1a023          	sw	a1,-1696(gp) # 200004c0 <mbedtls_rsa_free_fn>
D:/work/WIFI_GD32VW/Github_GD32VW55x/MSDK/plf/src/init_rom_symbol.c:177
        mbedtls_rsa_import_raw_fn = (void *)0x0bf743f6;
 8002618:	4532                	lw	a0,12(sp)
D:/work/WIFI_GD32VW/Github_GD32VW55x/MSDK/plf/src/init_rom_symbol.c:175
        mbedtls_rsa_get_len_fn = (void *)0x0bf7490c;
 800261a:	90c68c93          	addi	s9,a3,-1780
D:/work/WIFI_GD32VW/Github_GD32VW55x/MSDK/plf/src/init_rom_symbol.c:174
        mbedtls_rsa_gen_key_fn = (void *)0x0bf749e2;
 800261e:	96c1a223          	sw	a2,-1692(gp) # 200004c4 <mbedtls_rsa_gen_key_fn>
D:/work/WIFI_GD32VW/Github_GD32VW55x/MSDK/plf/src/init_rom_symbol.c:175
        mbedtls_rsa_get_len_fn = (void *)0x0bf7490c;
 8002622:	9791a423          	sw	s9,-1688(gp) # 200004c8 <mbedtls_rsa_get_len_fn>
D:/work/WIFI_GD32VW/Github_GD32VW55x/MSDK/plf/src/init_rom_symbol.c:178
        mbedtls_rsa_init_fn = (void *)0x0bf748d4;
 8002626:	0bf755b7          	lui	a1,0xbf75
D:/work/WIFI_GD32VW/Github_GD32VW55x/MSDK/plf/src/init_rom_symbol.c:176
        mbedtls_rsa_import_fn = (void *)0x0bf74364;
 800262a:	97a1a623          	sw	s10,-1684(gp) # 200004cc <mbedtls_rsa_import_fn>
D:/work/WIFI_GD32VW/Github_GD32VW55x/MSDK/plf/src/init_rom_symbol.c:177
        mbedtls_rsa_import_raw_fn = (void *)0x0bf743f6;
 800262e:	96a1a823          	sw	a0,-1680(gp) # 200004d0 <mbedtls_rsa_import_raw_fn>
D:/work/WIFI_GD32VW/Github_GD32VW55x/MSDK/plf/src/init_rom_symbol.c:178
        mbedtls_rsa_init_fn = (void *)0x0bf748d4;
 8002632:	8d458513          	addi	a0,a1,-1836 # bf748d4 <mbedtls_mpi_mul_mpi_sw+0x60f4>
 8002636:	96a1aa23          	sw	a0,-1676(gp) # 200004d4 <mbedtls_rsa_init_fn>
D:/work/WIFI_GD32VW/Github_GD32VW55x/MSDK/plf/src/init_rom_symbol.c:179
        mbedtls_rsa_pkcs1_decrypt_fn = (void *)0x0bf75a32;
 800263a:	0bf76537          	lui	a0,0xbf76
 800263e:	a3250413          	addi	s0,a0,-1486 # bf75a32 <mbedtls_mpi_mul_mpi_sw+0x7252>
 8002642:	9681ac23          	sw	s0,-1672(gp) # 200004d8 <mbedtls_rsa_pkcs1_decrypt_fn>
D:/work/WIFI_GD32VW/Github_GD32VW55x/MSDK/plf/src/init_rom_symbol.c:180
        mbedtls_rsa_pkcs1_encrypt_fn = (void *)0x0bf75574;
 8002646:	57458413          	addi	s0,a1,1396
 800264a:	9681ae23          	sw	s0,-1668(gp) # 200004dc <mbedtls_rsa_pkcs1_encrypt_fn>
D:/work/WIFI_GD32VW/Github_GD32VW55x/MSDK/plf/src/init_rom_symbol.c:181
        mbedtls_rsa_pkcs1_sign_fn = (void *)0x0bf75d64;
 800264e:	d6450413          	addi	s0,a0,-668
 8002652:	9881a023          	sw	s0,-1664(gp) # 200004e0 <mbedtls_rsa_pkcs1_sign_fn>
D:/work/WIFI_GD32VW/Github_GD32VW55x/MSDK/plf/src/init_rom_symbol.c:182
        mbedtls_rsa_pkcs1_verify_fn = (void *)0x0bf760d4;
 8002656:	0d450513          	addi	a0,a0,212
 800265a:	98a1a223          	sw	a0,-1660(gp) # 200004e4 <mbedtls_rsa_pkcs1_verify_fn>
D:/work/WIFI_GD32VW/Github_GD32VW55x/MSDK/plf/src/init_rom_symbol.c:185
        mbedtls_rsa_private_fn = (void *)0x0bf752ce;
        mbedtls_rsa_private_sw_fn = (void *)0x0bf74da8;
        mbedtls_rsa_public_fn = (void *)0x0bf74c50;
 800265e:	c5068a93          	addi	s5,a3,-944
D:/work/WIFI_GD32VW/Github_GD32VW55x/MSDK/plf/src/init_rom_symbol.c:183
        mbedtls_rsa_private_fn = (void *)0x0bf752ce;
 8002662:	2ce58513          	addi	a0,a1,718
 8002666:	98a1a423          	sw	a0,-1656(gp) # 200004e8 <mbedtls_rsa_private_fn>
D:/work/WIFI_GD32VW/Github_GD32VW55x/MSDK/plf/src/init_rom_symbol.c:186
        mbedtls_rsa_rsaes_oaep_decrypt_fn = (void *)0x0bf755a8;
 800266a:	5a868a13          	addi	s4,a3,1448
D:/work/WIFI_GD32VW/Github_GD32VW55x/MSDK/plf/src/init_rom_symbol.c:185
        mbedtls_rsa_public_fn = (void *)0x0bf74c50;
 800266e:	9951a823          	sw	s5,-1648(gp) # 200004f0 <mbedtls_rsa_public_fn>
D:/work/WIFI_GD32VW/Github_GD32VW55x/MSDK/plf/src/init_rom_symbol.c:187
        mbedtls_rsa_rsaes_oaep_encrypt_fn = (void *)0x0bf752e2;
 8002672:	2e268993          	addi	s3,a3,738
D:/work/WIFI_GD32VW/Github_GD32VW55x/MSDK/plf/src/init_rom_symbol.c:186
        mbedtls_rsa_rsaes_oaep_decrypt_fn = (void *)0x0bf755a8;
 8002676:	9941aa23          	sw	s4,-1644(gp) # 200004f4 <mbedtls_rsa_rsaes_oaep_decrypt_fn>
D:/work/WIFI_GD32VW/Github_GD32VW55x/MSDK/plf/src/init_rom_symbol.c:188
        mbedtls_rsa_rsaes_pkcs1_v15_decrypt_fn = (void *)0x0bf757da;
 800267a:	7da68913          	addi	s2,a3,2010
D:/work/WIFI_GD32VW/Github_GD32VW55x/MSDK/plf/src/init_rom_symbol.c:187
        mbedtls_rsa_rsaes_oaep_encrypt_fn = (void *)0x0bf752e2;
 800267e:	9931ac23          	sw	s3,-1640(gp) # 200004f8 <mbedtls_rsa_rsaes_oaep_encrypt_fn>
D:/work/WIFI_GD32VW/Github_GD32VW55x/MSDK/plf/src/init_rom_symbol.c:189
        mbedtls_rsa_rsaes_pkcs1_v15_encrypt_fn = (void *)0x0bf75448;
 8002682:	44868493          	addi	s1,a3,1096
D:/work/WIFI_GD32VW/Github_GD32VW55x/MSDK/plf/src/init_rom_symbol.c:188
        mbedtls_rsa_rsaes_pkcs1_v15_decrypt_fn = (void *)0x0bf757da;
 8002686:	9921ae23          	sw	s2,-1636(gp) # 200004fc <mbedtls_rsa_rsaes_pkcs1_v15_decrypt_fn>
D:/work/WIFI_GD32VW/Github_GD32VW55x/MSDK/plf/src/init_rom_symbol.c:190
        mbedtls_rsa_rsassa_pkcs1_v15_sign_fn = (void *)0x0bf75c56;
 800268a:	c5678413          	addi	s0,a5,-938
D:/work/WIFI_GD32VW/Github_GD32VW55x/MSDK/plf/src/init_rom_symbol.c:189
        mbedtls_rsa_rsaes_pkcs1_v15_encrypt_fn = (void *)0x0bf75448;
 800268e:	9a91a023          	sw	s1,-1632(gp) # 20000500 <mbedtls_rsa_rsaes_pkcs1_v15_encrypt_fn>
D:/work/WIFI_GD32VW/Github_GD32VW55x/MSDK/plf/src/init_rom_symbol.c:191
        mbedtls_rsa_rsassa_pkcs1_v15_verify_fn = (void *)0x0bf75fca;
 8002692:	fca78393          	addi	t2,a5,-54
D:/work/WIFI_GD32VW/Github_GD32VW55x/MSDK/plf/src/init_rom_symbol.c:190
        mbedtls_rsa_rsassa_pkcs1_v15_sign_fn = (void *)0x0bf75c56;
 8002696:	9a81a223          	sw	s0,-1628(gp) # 20000504 <mbedtls_rsa_rsassa_pkcs1_v15_sign_fn>
D:/work/WIFI_GD32VW/Github_GD32VW55x/MSDK/plf/src/init_rom_symbol.c:192
        mbedtls_rsa_rsassa_pss_sign_fn = (void *)0x0bf75a6c;
 800269a:	a6c78293          	addi	t0,a5,-1428
D:/work/WIFI_GD32VW/Github_GD32VW55x/MSDK/plf/src/init_rom_symbol.c:191
        mbedtls_rsa_rsassa_pkcs1_v15_verify_fn = (void *)0x0bf75fca;
 800269e:	9a71a423          	sw	t2,-1624(gp) # 20000508 <mbedtls_rsa_rsassa_pkcs1_v15_verify_fn>
D:/work/WIFI_GD32VW/Github_GD32VW55x/MSDK/plf/src/init_rom_symbol.c:193
        mbedtls_rsa_rsassa_pss_verify_fn = (void *)0x0bf75faa;
 80026a2:	faa78f93          	addi	t6,a5,-86
D:/work/WIFI_GD32VW/Github_GD32VW55x/MSDK/plf/src/init_rom_symbol.c:192
        mbedtls_rsa_rsassa_pss_sign_fn = (void *)0x0bf75a6c;
 80026a6:	9a51a623          	sw	t0,-1620(gp) # 2000050c <mbedtls_rsa_rsassa_pss_sign_fn>
D:/work/WIFI_GD32VW/Github_GD32VW55x/MSDK/plf/src/init_rom_symbol.c:194
        mbedtls_rsa_rsassa_pss_verify_ext_fn = (void *)0x0bf75d82;
 80026aa:	d8278f13          	addi	t5,a5,-638
D:/work/WIFI_GD32VW/Github_GD32VW55x/MSDK/plf/src/init_rom_symbol.c:193
        mbedtls_rsa_rsassa_pss_verify_fn = (void *)0x0bf75faa;
 80026ae:	9bf1aa23          	sw	t6,-1612(gp) # 20000514 <mbedtls_rsa_rsassa_pss_verify_fn>
D:/work/WIFI_GD32VW/Github_GD32VW55x/MSDK/plf/src/init_rom_symbol.c:194
        mbedtls_rsa_rsassa_pss_verify_ext_fn = (void *)0x0bf75d82;
 80026b2:	9be1a823          	sw	t5,-1616(gp) # 20000510 <mbedtls_rsa_rsassa_pss_verify_ext_fn>
D:/work/WIFI_GD32VW/Github_GD32VW55x/MSDK/plf/src/init_rom_symbol.c:195
        mbedtls_rsa_set_padding_fn = (void *)0x0bf74902;
 80026b6:	90268693          	addi	a3,a3,-1790
D:/work/WIFI_GD32VW/Github_GD32VW55x/MSDK/plf/src/init_rom_symbol.c:196
        mbedtls_sha256_clone_fn = (void *)0x0bf767b0;
 80026ba:	7b078e13          	addi	t3,a5,1968
D:/work/WIFI_GD32VW/Github_GD32VW55x/MSDK/plf/src/init_rom_symbol.c:195
        mbedtls_rsa_set_padding_fn = (void *)0x0bf74902;
 80026be:	9ad1ac23          	sw	a3,-1608(gp) # 20000518 <mbedtls_rsa_set_padding_fn>
D:/work/WIFI_GD32VW/Github_GD32VW55x/MSDK/plf/src/init_rom_symbol.c:197
        mbedtls_sha256_finish_fn = (void *)0x0bf7686a;
 80026c2:	86a70313          	addi	t1,a4,-1942
D:/work/WIFI_GD32VW/Github_GD32VW55x/MSDK/plf/src/init_rom_symbol.c:196
        mbedtls_sha256_clone_fn = (void *)0x0bf767b0;
 80026c6:	9bc1ae23          	sw	t3,-1604(gp) # 2000051c <mbedtls_sha256_clone_fn>
D:/work/WIFI_GD32VW/Github_GD32VW55x/MSDK/plf/src/init_rom_symbol.c:198
        mbedtls_sha256_finish_ret_fn = (void *)0x0bf76842;
 80026ca:	84270893          	addi	a7,a4,-1982
D:/work/WIFI_GD32VW/Github_GD32VW55x/MSDK/plf/src/init_rom_symbol.c:197
        mbedtls_sha256_finish_fn = (void *)0x0bf7686a;
 80026ce:	9c61a023          	sw	t1,-1600(gp) # 20000520 <mbedtls_sha256_finish_fn>
D:/work/WIFI_GD32VW/Github_GD32VW55x/MSDK/plf/src/init_rom_symbol.c:199
        mbedtls_sha256_free_fn = (void *)0x0bf7679e;
 80026d2:	79e78813          	addi	a6,a5,1950
D:/work/WIFI_GD32VW/Github_GD32VW55x/MSDK/plf/src/init_rom_symbol.c:198
        mbedtls_sha256_finish_ret_fn = (void *)0x0bf76842;
 80026d6:	9d11a223          	sw	a7,-1596(gp) # 20000524 <mbedtls_sha256_finish_ret_fn>
D:/work/WIFI_GD32VW/Github_GD32VW55x/MSDK/plf/src/init_rom_symbol.c:200
        mbedtls_sha256_init_fn = (void *)0x0bf7679a;
 80026da:	79a78513          	addi	a0,a5,1946
D:/work/WIFI_GD32VW/Github_GD32VW55x/MSDK/plf/src/init_rom_symbol.c:199
        mbedtls_sha256_free_fn = (void *)0x0bf7679e;
 80026de:	9d01a423          	sw	a6,-1592(gp) # 20000528 <mbedtls_sha256_free_fn>
D:/work/WIFI_GD32VW/Github_GD32VW55x/MSDK/plf/src/init_rom_symbol.c:184
        mbedtls_rsa_private_sw_fn = (void *)0x0bf74da8;
 80026e2:	da858593          	addi	a1,a1,-600
 80026e6:	98b1a623          	sw	a1,-1652(gp) # 200004ec <mbedtls_rsa_private_sw_fn>
D:/work/WIFI_GD32VW/Github_GD32VW55x/MSDK/plf/src/init_rom_symbol.c:200
        mbedtls_sha256_init_fn = (void *)0x0bf7679a;
 80026ea:	9ca1a623          	sw	a0,-1588(gp) # 2000052c <mbedtls_sha256_init_fn>
D:/work/WIFI_GD32VW/Github_GD32VW55x/MSDK/plf/src/init_rom_symbol.c:201
        mbedtls_sha256_starts_fn = (void *)0x0bf767e2;
 80026ee:	7e278593          	addi	a1,a5,2018
D:/work/WIFI_GD32VW/Github_GD32VW55x/MSDK/plf/src/init_rom_symbol.c:202
        mbedtls_sha256_starts_ret_fn = (void *)0x0bf767b8;
 80026f2:	7b878613          	addi	a2,a5,1976
D:/work/WIFI_GD32VW/Github_GD32VW55x/MSDK/plf/src/init_rom_symbol.c:201
        mbedtls_sha256_starts_fn = (void *)0x0bf767e2;
 80026f6:	9cb1a823          	sw	a1,-1584(gp) # 20000530 <mbedtls_sha256_starts_fn>
D:/work/WIFI_GD32VW/Github_GD32VW55x/MSDK/plf/src/init_rom_symbol.c:202
        mbedtls_sha256_starts_ret_fn = (void *)0x0bf767b8;
 80026fa:	9cc1aa23          	sw	a2,-1580(gp) # 20000534 <mbedtls_sha256_starts_ret_fn>
D:/work/WIFI_GD32VW/Github_GD32VW55x/MSDK/plf/src/init_rom_symbol.c:203
        mbedtls_sha256_update_fn = (void *)0x0bf76816;
 80026fe:	81670713          	addi	a4,a4,-2026
 8002702:	9ce1ac23          	sw	a4,-1576(gp) # 20000538 <mbedtls_sha256_update_fn>
D:/work/WIFI_GD32VW/Github_GD32VW55x/MSDK/plf/src/init_rom_symbol.c:204
        mbedtls_sha256_update_ret_fn = (void *)0x0bf767e6;
 8002706:	7e678793          	addi	a5,a5,2022
 800270a:	9cf1ae23          	sw	a5,-1572(gp) # 2000053c <mbedtls_sha256_update_ret_fn>
D:/work/WIFI_GD32VW/Github_GD32VW55x/MSDK/plf/src/init_rom_symbol.c:330
        mbedtls_sha256_update_fn = (void *)0x0bf763da;
        mbedtls_sha256_update_ret_fn = (void *)0x0bf763aa;
    }
#endif /* MBEDTLS_VERSION_NUMBER == 0x02110000 */
#endif /* CONFIG_ASIC_CUT_AUTO */
}
 800270e:	0141                	addi	sp,sp,16
 8002710:	06f0006f          	j	8002f7e <__riscv_restore_12>
D:/work/WIFI_GD32VW/Github_GD32VW55x/MSDK/plf/src/init_rom_symbol.c:68
        mbedtls_hwpka_flag_set(0
 8002714:	07f00513          	li	a0,127
 8002718:	03f5c097          	auipc	ra,0x3f5c
 800271c:	4fa080e7          	jalr	1274(ra) # bf5ec12 <mbedtls_hwpka_flag_set>
D:/work/WIFI_GD32VW/Github_GD32VW55x/MSDK/plf/src/init_rom_symbol.c:209
        ecp_supported_curves = (mbedtls_ecp_curve_info *)0x0bf73a7c;
 8002720:	0bf74737          	lui	a4,0xbf74
D:/work/WIFI_GD32VW/Github_GD32VW55x/MSDK/plf/src/init_rom_symbol.c:210
        mbedtls_ecdsa_free_fn = (void *)0x0bf71390;
 8002724:	0bf715b7          	lui	a1,0xbf71
D:/work/WIFI_GD32VW/Github_GD32VW55x/MSDK/plf/src/init_rom_symbol.c:209
        ecp_supported_curves = (mbedtls_ecp_curve_info *)0x0bf73a7c;
 8002728:	a7c70313          	addi	t1,a4,-1412 # bf73a7c <mbedtls_mpi_mul_mpi_sw+0x529c>
 800272c:	200008b7          	lui	a7,0x20000
D:/work/WIFI_GD32VW/Github_GD32VW55x/MSDK/plf/src/init_rom_symbol.c:210
        mbedtls_ecdsa_free_fn = (void *)0x0bf71390;
 8002730:	39058293          	addi	t0,a1,912 # bf71390 <mbedtls_mpi_mul_mpi_sw+0x2bb0>
D:/work/WIFI_GD32VW/Github_GD32VW55x/MSDK/plf/src/init_rom_symbol.c:209
        ecp_supported_curves = (mbedtls_ecp_curve_info *)0x0bf73a7c;
 8002734:	3668a423          	sw	t1,872(a7) # 20000368 <ecp_supported_curves>
D:/work/WIFI_GD32VW/Github_GD32VW55x/MSDK/plf/src/init_rom_symbol.c:210
        mbedtls_ecdsa_free_fn = (void *)0x0bf71390;
 8002738:	200008b7          	lui	a7,0x20000
D:/work/WIFI_GD32VW/Github_GD32VW55x/MSDK/plf/src/init_rom_symbol.c:211
        mbedtls_ecdsa_from_keypair_fn = (void *)0x0bf7133e;
 800273c:	33e58393          	addi	t2,a1,830
D:/work/WIFI_GD32VW/Github_GD32VW55x/MSDK/plf/src/init_rom_symbol.c:210
        mbedtls_ecdsa_free_fn = (void *)0x0bf71390;
 8002740:	3658a623          	sw	t0,876(a7) # 2000036c <mbedtls_ecdsa_free_fn>
D:/work/WIFI_GD32VW/Github_GD32VW55x/MSDK/plf/src/init_rom_symbol.c:211
        mbedtls_ecdsa_from_keypair_fn = (void *)0x0bf7133e;
 8002744:	200008b7          	lui	a7,0x20000
D:/work/WIFI_GD32VW/Github_GD32VW55x/MSDK/plf/src/init_rom_symbol.c:212
        mbedtls_ecdsa_genkey_fn = (void *)0x0bf71300;
 8002748:	30058e93          	addi	t4,a1,768
D:/work/WIFI_GD32VW/Github_GD32VW55x/MSDK/plf/src/init_rom_symbol.c:211
        mbedtls_ecdsa_from_keypair_fn = (void *)0x0bf7133e;
 800274c:	3678a823          	sw	t2,880(a7) # 20000370 <mbedtls_ecdsa_from_keypair_fn>
D:/work/WIFI_GD32VW/Github_GD32VW55x/MSDK/plf/src/init_rom_symbol.c:212
        mbedtls_ecdsa_genkey_fn = (void *)0x0bf71300;
 8002750:	200008b7          	lui	a7,0x20000
D:/work/WIFI_GD32VW/Github_GD32VW55x/MSDK/plf/src/init_rom_symbol.c:213
        mbedtls_ecdsa_init_fn = (void *)0x0bf7138c;
 8002754:	38c58e13          	addi	t3,a1,908
D:/work/WIFI_GD32VW/Github_GD32VW55x/MSDK/plf/src/init_rom_symbol.c:212
        mbedtls_ecdsa_genkey_fn = (void *)0x0bf71300;
 8002758:	37d8aa23          	sw	t4,884(a7) # 20000374 <mbedtls_ecdsa_genkey_fn>
D:/work/WIFI_GD32VW/Github_GD32VW55x/MSDK/plf/src/init_rom_symbol.c:213
        mbedtls_ecdsa_init_fn = (void *)0x0bf7138c;
 800275c:	200008b7          	lui	a7,0x20000
D:/work/WIFI_GD32VW/Github_GD32VW55x/MSDK/plf/src/init_rom_symbol.c:214
        mbedtls_ecdsa_read_signature_fn = (void *)0x0bf712fa;
 8002760:	2fa58313          	addi	t1,a1,762
D:/work/WIFI_GD32VW/Github_GD32VW55x/MSDK/plf/src/init_rom_symbol.c:213
        mbedtls_ecdsa_init_fn = (void *)0x0bf7138c;
 8002764:	37c8ac23          	sw	t3,888(a7) # 20000378 <mbedtls_ecdsa_init_fn>
D:/work/WIFI_GD32VW/Github_GD32VW55x/MSDK/plf/src/init_rom_symbol.c:214
        mbedtls_ecdsa_read_signature_fn = (void *)0x0bf712fa;
 8002768:	200008b7          	lui	a7,0x20000
D:/work/WIFI_GD32VW/Github_GD32VW55x/MSDK/plf/src/init_rom_symbol.c:215
        mbedtls_ecdsa_read_signature_restartable_fn = (void *)0x0bf71254;
 800276c:	25458293          	addi	t0,a1,596
D:/work/WIFI_GD32VW/Github_GD32VW55x/MSDK/plf/src/init_rom_symbol.c:214
        mbedtls_ecdsa_read_signature_fn = (void *)0x0bf712fa;
 8002770:	3668ae23          	sw	t1,892(a7) # 2000037c <mbedtls_ecdsa_read_signature_fn>
D:/work/WIFI_GD32VW/Github_GD32VW55x/MSDK/plf/src/init_rom_symbol.c:215
        mbedtls_ecdsa_read_signature_restartable_fn = (void *)0x0bf71254;
 8002774:	200008b7          	lui	a7,0x20000
D:/work/WIFI_GD32VW/Github_GD32VW55x/MSDK/plf/src/init_rom_symbol.c:216
        mbedtls_ecdsa_sign_fn = (void *)0x0bf70b6e;
 8002778:	b6e58393          	addi	t2,a1,-1170
D:/work/WIFI_GD32VW/Github_GD32VW55x/MSDK/plf/src/init_rom_symbol.c:215
        mbedtls_ecdsa_read_signature_restartable_fn = (void *)0x0bf71254;
 800277c:	3858a023          	sw	t0,896(a7) # 20000380 <mbedtls_ecdsa_read_signature_restartable_fn>
D:/work/WIFI_GD32VW/Github_GD32VW55x/MSDK/plf/src/init_rom_symbol.c:216
        mbedtls_ecdsa_sign_fn = (void *)0x0bf70b6e;
 8002780:	200008b7          	lui	a7,0x20000
D:/work/WIFI_GD32VW/Github_GD32VW55x/MSDK/plf/src/init_rom_symbol.c:217
        mbedtls_ecdsa_sign_det_fn = (void *)0x0bf70f2e;
 8002784:	f2e58e93          	addi	t4,a1,-210
D:/work/WIFI_GD32VW/Github_GD32VW55x/MSDK/plf/src/init_rom_symbol.c:216
        mbedtls_ecdsa_sign_fn = (void *)0x0bf70b6e;
 8002788:	3878a423          	sw	t2,904(a7) # 20000388 <mbedtls_ecdsa_sign_fn>
D:/work/WIFI_GD32VW/Github_GD32VW55x/MSDK/plf/src/init_rom_symbol.c:217
        mbedtls_ecdsa_sign_det_fn = (void *)0x0bf70f2e;
 800278c:	200008b7          	lui	a7,0x20000
D:/work/WIFI_GD32VW/Github_GD32VW55x/MSDK/plf/src/init_rom_symbol.c:218
        mbedtls_ecdsa_verify_fn = (void *)0x0bf70f32;
 8002790:	f3258e13          	addi	t3,a1,-206
D:/work/WIFI_GD32VW/Github_GD32VW55x/MSDK/plf/src/init_rom_symbol.c:217
        mbedtls_ecdsa_sign_det_fn = (void *)0x0bf70f2e;
 8002794:	39d8a223          	sw	t4,900(a7) # 20000384 <mbedtls_ecdsa_sign_det_fn>
D:/work/WIFI_GD32VW/Github_GD32VW55x/MSDK/plf/src/init_rom_symbol.c:218
        mbedtls_ecdsa_verify_fn = (void *)0x0bf70f32;
 8002798:	200008b7          	lui	a7,0x20000
D:/work/WIFI_GD32VW/Github_GD32VW55x/MSDK/plf/src/init_rom_symbol.c:219
        mbedtls_ecdsa_write_signature_fn = (void *)0x0bf71224;
 800279c:	22458313          	addi	t1,a1,548
D:/work/WIFI_GD32VW/Github_GD32VW55x/MSDK/plf/src/init_rom_symbol.c:218
        mbedtls_ecdsa_verify_fn = (void *)0x0bf70f32;
 80027a0:	39c8a623          	sw	t3,908(a7) # 2000038c <mbedtls_ecdsa_verify_fn>
D:/work/WIFI_GD32VW/Github_GD32VW55x/MSDK/plf/src/init_rom_symbol.c:219
        mbedtls_ecdsa_write_signature_fn = (void *)0x0bf71224;
 80027a4:	200008b7          	lui	a7,0x20000
D:/work/WIFI_GD32VW/Github_GD32VW55x/MSDK/plf/src/init_rom_symbol.c:220
        mbedtls_ecdsa_write_signature_det_fn = (void *)0x0bf71234;
 80027a8:	23458293          	addi	t0,a1,564
D:/work/WIFI_GD32VW/Github_GD32VW55x/MSDK/plf/src/init_rom_symbol.c:219
        mbedtls_ecdsa_write_signature_fn = (void *)0x0bf71224;
 80027ac:	3868aa23          	sw	t1,916(a7) # 20000394 <mbedtls_ecdsa_write_signature_fn>
D:/work/WIFI_GD32VW/Github_GD32VW55x/MSDK/plf/src/init_rom_symbol.c:220
        mbedtls_ecdsa_write_signature_det_fn = (void *)0x0bf71234;
 80027b0:	200008b7          	lui	a7,0x20000
D:/work/WIFI_GD32VW/Github_GD32VW55x/MSDK/plf/src/init_rom_symbol.c:222
        mbedtls_ecp_check_privkey_fn = (void *)0x0bf72a0e;
 80027b4:	0bf73637          	lui	a2,0xbf73
D:/work/WIFI_GD32VW/Github_GD32VW55x/MSDK/plf/src/init_rom_symbol.c:220
        mbedtls_ecdsa_write_signature_det_fn = (void *)0x0bf71234;
 80027b8:	3858a823          	sw	t0,912(a7) # 20000390 <mbedtls_ecdsa_write_signature_det_fn>
D:/work/WIFI_GD32VW/Github_GD32VW55x/MSDK/plf/src/init_rom_symbol.c:221
        mbedtls_ecdsa_write_signature_restartable_fn = (void *)0x0bf7115e;
 80027bc:	15e58593          	addi	a1,a1,350
 80027c0:	200002b7          	lui	t0,0x20000
D:/work/WIFI_GD32VW/Github_GD32VW55x/MSDK/plf/src/init_rom_symbol.c:225
        mbedtls_ecp_copy_fn = (void *)0x0bf71f42;
 80027c4:	0bf726b7          	lui	a3,0xbf72
D:/work/WIFI_GD32VW/Github_GD32VW55x/MSDK/plf/src/init_rom_symbol.c:222
        mbedtls_ecp_check_privkey_fn = (void *)0x0bf72a0e;
 80027c8:	a0e60f93          	addi	t6,a2,-1522 # bf72a0e <mbedtls_mpi_mul_mpi_sw+0x422e>
D:/work/WIFI_GD32VW/Github_GD32VW55x/MSDK/plf/src/init_rom_symbol.c:221
        mbedtls_ecdsa_write_signature_restartable_fn = (void *)0x0bf7115e;
 80027cc:	38b2ac23          	sw	a1,920(t0) # 20000398 <mbedtls_ecdsa_write_signature_restartable_fn>
D:/work/WIFI_GD32VW/Github_GD32VW55x/MSDK/plf/src/init_rom_symbol.c:222
        mbedtls_ecp_check_privkey_fn = (void *)0x0bf72a0e;
 80027d0:	200005b7          	lui	a1,0x20000
D:/work/WIFI_GD32VW/Github_GD32VW55x/MSDK/plf/src/init_rom_symbol.c:225
        mbedtls_ecp_copy_fn = (void *)0x0bf71f42;
 80027d4:	f4268f13          	addi	t5,a3,-190 # bf71f42 <mbedtls_mpi_mul_mpi_sw+0x3762>
D:/work/WIFI_GD32VW/Github_GD32VW55x/MSDK/plf/src/init_rom_symbol.c:222
        mbedtls_ecp_check_privkey_fn = (void *)0x0bf72a0e;
 80027d8:	39f5ae23          	sw	t6,924(a1) # 2000039c <mbedtls_ecp_check_privkey_fn>
D:/work/WIFI_GD32VW/Github_GD32VW55x/MSDK/plf/src/init_rom_symbol.c:226
        mbedtls_ecp_curve_info_from_grp_id_fn = (void *)0x0bf71d4e;
 80027dc:	d4e68e93          	addi	t4,a3,-690
D:/work/WIFI_GD32VW/Github_GD32VW55x/MSDK/plf/src/init_rom_symbol.c:225
        mbedtls_ecp_copy_fn = (void *)0x0bf71f42;
 80027e0:	85e1a423          	sw	t5,-1976(gp) # 200003a8 <mbedtls_ecp_copy_fn>
D:/work/WIFI_GD32VW/Github_GD32VW55x/MSDK/plf/src/init_rom_symbol.c:227
        mbedtls_ecp_curve_info_from_name_fn = (void *)0x0bf71daa;
 80027e4:	daa68e13          	addi	t3,a3,-598
D:/work/WIFI_GD32VW/Github_GD32VW55x/MSDK/plf/src/init_rom_symbol.c:226
        mbedtls_ecp_curve_info_from_grp_id_fn = (void *)0x0bf71d4e;
 80027e8:	85d1a623          	sw	t4,-1972(gp) # 200003ac <mbedtls_ecp_curve_info_from_grp_id_fn>
D:/work/WIFI_GD32VW/Github_GD32VW55x/MSDK/plf/src/init_rom_symbol.c:228
        mbedtls_ecp_curve_info_from_tls_id_fn = (void *)0x0bf71d7a;
 80027ec:	d7a68313          	addi	t1,a3,-646
D:/work/WIFI_GD32VW/Github_GD32VW55x/MSDK/plf/src/init_rom_symbol.c:227
        mbedtls_ecp_curve_info_from_name_fn = (void *)0x0bf71daa;
 80027f0:	85c1a823          	sw	t3,-1968(gp) # 200003b0 <mbedtls_ecp_curve_info_from_name_fn>
D:/work/WIFI_GD32VW/Github_GD32VW55x/MSDK/plf/src/init_rom_symbol.c:229
        mbedtls_ecp_curve_list_fn = (void *)0x0bf71cda;
 80027f4:	cda68893          	addi	a7,a3,-806
D:/work/WIFI_GD32VW/Github_GD32VW55x/MSDK/plf/src/init_rom_symbol.c:228
        mbedtls_ecp_curve_info_from_tls_id_fn = (void *)0x0bf71d7a;
 80027f8:	8461aa23          	sw	t1,-1964(gp) # 200003b4 <mbedtls_ecp_curve_info_from_tls_id_fn>
D:/work/WIFI_GD32VW/Github_GD32VW55x/MSDK/plf/src/init_rom_symbol.c:234
        mbedtls_ecp_group_copy_fn = (void *)0x0bf71f80;
 80027fc:	f8068293          	addi	t0,a3,-128
D:/work/WIFI_GD32VW/Github_GD32VW55x/MSDK/plf/src/init_rom_symbol.c:229
        mbedtls_ecp_curve_list_fn = (void *)0x0bf71cda;
 8002800:	8511ac23          	sw	a7,-1960(gp) # 200003b8 <mbedtls_ecp_curve_list_fn>
D:/work/WIFI_GD32VW/Github_GD32VW55x/MSDK/plf/src/init_rom_symbol.c:235
        mbedtls_ecp_group_free_fn = (void *)0x0bf71e9c;
 8002804:	e9c68f93          	addi	t6,a3,-356
D:/work/WIFI_GD32VW/Github_GD32VW55x/MSDK/plf/src/init_rom_symbol.c:234
        mbedtls_ecp_group_copy_fn = (void *)0x0bf71f80;
 8002808:	8651a623          	sw	t0,-1940(gp) # 200003cc <mbedtls_ecp_group_copy_fn>
D:/work/WIFI_GD32VW/Github_GD32VW55x/MSDK/plf/src/init_rom_symbol.c:236
        mbedtls_ecp_group_init_fn = (void *)0x0bf71e14;
 800280c:	e1468f13          	addi	t5,a3,-492
D:/work/WIFI_GD32VW/Github_GD32VW55x/MSDK/plf/src/init_rom_symbol.c:235
        mbedtls_ecp_group_free_fn = (void *)0x0bf71e9c;
 8002810:	87f1a823          	sw	t6,-1936(gp) # 200003d0 <mbedtls_ecp_group_free_fn>
D:/work/WIFI_GD32VW/Github_GD32VW55x/MSDK/plf/src/init_rom_symbol.c:237
        mbedtls_ecp_grp_id_list_fn = (void *)0x0bf71d02;
 8002814:	d0268e93          	addi	t4,a3,-766
D:/work/WIFI_GD32VW/Github_GD32VW55x/MSDK/plf/src/init_rom_symbol.c:236
        mbedtls_ecp_group_init_fn = (void *)0x0bf71e14;
 8002818:	87e1aa23          	sw	t5,-1932(gp) # 200003d4 <mbedtls_ecp_group_init_fn>
D:/work/WIFI_GD32VW/Github_GD32VW55x/MSDK/plf/src/init_rom_symbol.c:238
        mbedtls_ecp_is_zero_fn = (void *)0x0bf726b4;
 800281c:	6b468e13          	addi	t3,a3,1716
D:/work/WIFI_GD32VW/Github_GD32VW55x/MSDK/plf/src/init_rom_symbol.c:237
        mbedtls_ecp_grp_id_list_fn = (void *)0x0bf71d02;
 8002820:	87d1ac23          	sw	t4,-1928(gp) # 200003d8 <mbedtls_ecp_grp_id_list_fn>
D:/work/WIFI_GD32VW/Github_GD32VW55x/MSDK/plf/src/init_rom_symbol.c:239
        mbedtls_ecp_keypair_free_fn = (void *)0x0bf71f1c;
 8002824:	f1c68313          	addi	t1,a3,-228
D:/work/WIFI_GD32VW/Github_GD32VW55x/MSDK/plf/src/init_rom_symbol.c:238
        mbedtls_ecp_is_zero_fn = (void *)0x0bf726b4;
 8002828:	87c1ae23          	sw	t3,-1924(gp) # 200003dc <mbedtls_ecp_is_zero_fn>
D:/work/WIFI_GD32VW/Github_GD32VW55x/MSDK/plf/src/init_rom_symbol.c:224
        mbedtls_ecp_check_pubkey_fn = (void *)0x0bf72c78;
 800282c:	c7860293          	addi	t0,a2,-904
D:/work/WIFI_GD32VW/Github_GD32VW55x/MSDK/plf/src/init_rom_symbol.c:259
        mbedtls_md5_fn = (void *)0x0bf77352;
 8002830:	0bf77bb7          	lui	s7,0xbf77
D:/work/WIFI_GD32VW/Github_GD32VW55x/MSDK/plf/src/init_rom_symbol.c:240
        mbedtls_ecp_keypair_init_fn = (void *)0x0bf71e72;
 8002834:	e7268893          	addi	a7,a3,-398
D:/work/WIFI_GD32VW/Github_GD32VW55x/MSDK/plf/src/init_rom_symbol.c:239
        mbedtls_ecp_keypair_free_fn = (void *)0x0bf71f1c;
 8002838:	8861a023          	sw	t1,-1920(gp) # 200003e0 <mbedtls_ecp_keypair_free_fn>
D:/work/WIFI_GD32VW/Github_GD32VW55x/MSDK/plf/src/init_rom_symbol.c:224
        mbedtls_ecp_check_pubkey_fn = (void *)0x0bf72c78;
 800283c:	8451a223          	sw	t0,-1980(gp) # 200003a4 <mbedtls_ecp_check_pubkey_fn>
D:/work/WIFI_GD32VW/Github_GD32VW55x/MSDK/plf/src/init_rom_symbol.c:231
        mbedtls_ecp_gen_keypair_fn = (void *)0x0bf737f2;
 8002840:	7f260293          	addi	t0,a2,2034
D:/work/WIFI_GD32VW/Github_GD32VW55x/MSDK/plf/src/init_rom_symbol.c:240
        mbedtls_ecp_keypair_init_fn = (void *)0x0bf71e72;
 8002844:	8911a223          	sw	a7,-1916(gp) # 200003e4 <mbedtls_ecp_keypair_init_fn>
D:/work/WIFI_GD32VW/Github_GD32VW55x/MSDK/plf/src/init_rom_symbol.c:259
        mbedtls_md5_fn = (void *)0x0bf77352;
 8002848:	352b8e13          	addi	t3,s7,850 # bf77352 <mbedtls_mpi_mul_mpi_sw+0x8b72>
D:/work/WIFI_GD32VW/Github_GD32VW55x/MSDK/plf/src/init_rom_symbol.c:261
        mbedtls_md5_finish_fn = (void *)0x0bf7731c;
 800284c:	31cb8893          	addi	a7,s7,796
D:/work/WIFI_GD32VW/Github_GD32VW55x/MSDK/plf/src/init_rom_symbol.c:231
        mbedtls_ecp_gen_keypair_fn = (void *)0x0bf737f2;
 8002850:	8651a223          	sw	t0,-1948(gp) # 200003c4 <mbedtls_ecp_gen_keypair_fn>
D:/work/WIFI_GD32VW/Github_GD32VW55x/MSDK/plf/src/init_rom_symbol.c:270
        mbedtls_md5_update_ret_fn = (void *)0x0bf7720c;
 8002854:	20cb8b93          	addi	s7,s7,524
D:/work/WIFI_GD32VW/Github_GD32VW55x/MSDK/plf/src/init_rom_symbol.c:232
        mbedtls_ecp_gen_keypair_base_fn = (void *)0x0bf73796;
 8002858:	79660293          	addi	t0,a2,1942
 800285c:	8651a023          	sw	t0,-1952(gp) # 200003c0 <mbedtls_ecp_gen_keypair_base_fn>
D:/work/WIFI_GD32VW/Github_GD32VW55x/MSDK/plf/src/init_rom_symbol.c:270
        mbedtls_md5_update_ret_fn = (void *)0x0bf7720c;
 8002860:	c65e                	sw	s7,12(sp)
D:/work/WIFI_GD32VW/Github_GD32VW55x/MSDK/plf/src/init_rom_symbol.c:233
        mbedtls_ecp_gen_privkey_fn = (void *)0x0bf72a8c;
 8002862:	a8c60293          	addi	t0,a2,-1396
D:/work/WIFI_GD32VW/Github_GD32VW55x/MSDK/plf/src/init_rom_symbol.c:223
        mbedtls_ecp_check_pub_priv_fn = (void *)0x0bf73848;
 8002866:	84870c13          	addi	s8,a4,-1976
D:/work/WIFI_GD32VW/Github_GD32VW55x/MSDK/plf/src/init_rom_symbol.c:233
        mbedtls_ecp_gen_privkey_fn = (void *)0x0bf72a8c;
 800286a:	8651a423          	sw	t0,-1944(gp) # 200003c8 <mbedtls_ecp_gen_privkey_fn>
D:/work/WIFI_GD32VW/Github_GD32VW55x/MSDK/plf/src/init_rom_symbol.c:241
        mbedtls_ecp_mul_fn = (void *)0x0bf73790;
 800286e:	79060d93          	addi	s11,a2,1936
D:/work/WIFI_GD32VW/Github_GD32VW55x/MSDK/plf/src/init_rom_symbol.c:223
        mbedtls_ecp_check_pub_priv_fn = (void *)0x0bf73848;
 8002872:	8581a023          	sw	s8,-1984(gp) # 200003a0 <mbedtls_ecp_check_pub_priv_fn>
D:/work/WIFI_GD32VW/Github_GD32VW55x/MSDK/plf/src/init_rom_symbol.c:230
        mbedtls_ecp_gen_key_fn = (void *)0x0bf73802;
 8002876:	80270c13          	addi	s8,a4,-2046
 800287a:	8581ae23          	sw	s8,-1956(gp) # 200003bc <mbedtls_ecp_gen_key_fn>
D:/work/WIFI_GD32VW/Github_GD32VW55x/MSDK/plf/src/init_rom_symbol.c:242
        mbedtls_ecp_mul_restartable_fn = (void *)0x0bf72ebc;
 800287e:	ebc60c93          	addi	s9,a2,-324
D:/work/WIFI_GD32VW/Github_GD32VW55x/MSDK/plf/src/init_rom_symbol.c:241
        mbedtls_ecp_mul_fn = (void *)0x0bf73790;
 8002882:	89b1a423          	sw	s11,-1912(gp) # 200003e8 <mbedtls_ecp_mul_fn>
D:/work/WIFI_GD32VW/Github_GD32VW55x/MSDK/plf/src/init_rom_symbol.c:243
        mbedtls_ecp_muladd_fn = (void *)0x0bf73a52;
 8002886:	a5270c13          	addi	s8,a4,-1454
D:/work/WIFI_GD32VW/Github_GD32VW55x/MSDK/plf/src/init_rom_symbol.c:242
        mbedtls_ecp_mul_restartable_fn = (void *)0x0bf72ebc;
 800288a:	8991a623          	sw	s9,-1908(gp) # 200003ec <mbedtls_ecp_mul_restartable_fn>
D:/work/WIFI_GD32VW/Github_GD32VW55x/MSDK/plf/src/init_rom_symbol.c:244
        mbedtls_ecp_muladd_restartable_fn = (void *)0x0bf73a36;
 800288e:	a3670b93          	addi	s7,a4,-1482
D:/work/WIFI_GD32VW/Github_GD32VW55x/MSDK/plf/src/init_rom_symbol.c:243
        mbedtls_ecp_muladd_fn = (void *)0x0bf73a52;
 8002892:	8981a823          	sw	s8,-1904(gp) # 200003f0 <mbedtls_ecp_muladd_fn>
D:/work/WIFI_GD32VW/Github_GD32VW55x/MSDK/plf/src/init_rom_symbol.c:245
        mbedtls_ecp_point_cmp_fn = (void *)0x0bf726ca;
 8002896:	6ca68b13          	addi	s6,a3,1738
D:/work/WIFI_GD32VW/Github_GD32VW55x/MSDK/plf/src/init_rom_symbol.c:244
        mbedtls_ecp_muladd_restartable_fn = (void *)0x0bf73a36;
 800289a:	8971aa23          	sw	s7,-1900(gp) # 200003f4 <mbedtls_ecp_muladd_restartable_fn>
D:/work/WIFI_GD32VW/Github_GD32VW55x/MSDK/plf/src/init_rom_symbol.c:246
        mbedtls_ecp_point_free_fn = (void *)0x0bf71e94;
 800289e:	e9468a93          	addi	s5,a3,-364
D:/work/WIFI_GD32VW/Github_GD32VW55x/MSDK/plf/src/init_rom_symbol.c:245
        mbedtls_ecp_point_cmp_fn = (void *)0x0bf726ca;
 80028a2:	8961ac23          	sw	s6,-1896(gp) # 200003f8 <mbedtls_ecp_point_cmp_fn>
D:/work/WIFI_GD32VW/Github_GD32VW55x/MSDK/plf/src/init_rom_symbol.c:247
        mbedtls_ecp_point_init_fn = (void *)0x0bf71df2;
 80028a6:	df268a13          	addi	s4,a3,-526
D:/work/WIFI_GD32VW/Github_GD32VW55x/MSDK/plf/src/init_rom_symbol.c:246
        mbedtls_ecp_point_free_fn = (void *)0x0bf71e94;
 80028aa:	8951ae23          	sw	s5,-1892(gp) # 200003fc <mbedtls_ecp_point_free_fn>
D:/work/WIFI_GD32VW/Github_GD32VW55x/MSDK/plf/src/init_rom_symbol.c:248
        mbedtls_ecp_point_read_binary_fn = (void *)0x0bf72824;
 80028ae:	82460993          	addi	s3,a2,-2012
D:/work/WIFI_GD32VW/Github_GD32VW55x/MSDK/plf/src/init_rom_symbol.c:247
        mbedtls_ecp_point_init_fn = (void *)0x0bf71df2;
 80028b2:	8b41a023          	sw	s4,-1888(gp) # 20000400 <mbedtls_ecp_point_init_fn>
D:/work/WIFI_GD32VW/Github_GD32VW55x/MSDK/plf/src/init_rom_symbol.c:249
        mbedtls_ecp_point_read_string_fn = (void *)0x0bf72712;
 80028b6:	71268913          	addi	s2,a3,1810
D:/work/WIFI_GD32VW/Github_GD32VW55x/MSDK/plf/src/init_rom_symbol.c:248
        mbedtls_ecp_point_read_binary_fn = (void *)0x0bf72824;
 80028ba:	8b31a223          	sw	s3,-1884(gp) # 20000404 <mbedtls_ecp_point_read_binary_fn>
D:/work/WIFI_GD32VW/Github_GD32VW55x/MSDK/plf/src/init_rom_symbol.c:250
        mbedtls_ecp_point_write_binary_fn = (void *)0x0bf72756;
 80028be:	75668493          	addi	s1,a3,1878
D:/work/WIFI_GD32VW/Github_GD32VW55x/MSDK/plf/src/init_rom_symbol.c:249
        mbedtls_ecp_point_read_string_fn = (void *)0x0bf72712;
 80028c2:	8b21a423          	sw	s2,-1880(gp) # 20000408 <mbedtls_ecp_point_read_string_fn>
D:/work/WIFI_GD32VW/Github_GD32VW55x/MSDK/plf/src/init_rom_symbol.c:250
        mbedtls_ecp_point_write_binary_fn = (void *)0x0bf72756;
 80028c6:	8a91a623          	sw	s1,-1876(gp) # 2000040c <mbedtls_ecp_point_write_binary_fn>
D:/work/WIFI_GD32VW/Github_GD32VW55x/MSDK/plf/src/init_rom_symbol.c:251
        mbedtls_ecp_set_zero_fn = (void *)0x0bf71f86;
 80028ca:	f8668693          	addi	a3,a3,-122
D:/work/WIFI_GD32VW/Github_GD32VW55x/MSDK/plf/src/init_rom_symbol.c:252
        mbedtls_ecp_tls_read_group_fn = (void *)0x0bf72994;
 80028ce:	99460413          	addi	s0,a2,-1644
D:/work/WIFI_GD32VW/Github_GD32VW55x/MSDK/plf/src/init_rom_symbol.c:251
        mbedtls_ecp_set_zero_fn = (void *)0x0bf71f86;
 80028d2:	8ad1a823          	sw	a3,-1872(gp) # 20000410 <mbedtls_ecp_set_zero_fn>
D:/work/WIFI_GD32VW/Github_GD32VW55x/MSDK/plf/src/init_rom_symbol.c:253
        mbedtls_ecp_tls_read_group_id_fn = (void *)0x0bf7292c;
 80028d6:	92c60393          	addi	t2,a2,-1748
D:/work/WIFI_GD32VW/Github_GD32VW55x/MSDK/plf/src/init_rom_symbol.c:252
        mbedtls_ecp_tls_read_group_fn = (void *)0x0bf72994;
 80028da:	8a81aa23          	sw	s0,-1868(gp) # 20000414 <mbedtls_ecp_tls_read_group_fn>
D:/work/WIFI_GD32VW/Github_GD32VW55x/MSDK/plf/src/init_rom_symbol.c:254
        mbedtls_ecp_tls_read_point_fn = (void *)0x0bf728c2;
 80028de:	8c260293          	addi	t0,a2,-1854
D:/work/WIFI_GD32VW/Github_GD32VW55x/MSDK/plf/src/init_rom_symbol.c:253
        mbedtls_ecp_tls_read_group_id_fn = (void *)0x0bf7292c;
 80028e2:	8a71ac23          	sw	t2,-1864(gp) # 20000418 <mbedtls_ecp_tls_read_group_id_fn>
D:/work/WIFI_GD32VW/Github_GD32VW55x/MSDK/plf/src/init_rom_symbol.c:255
        mbedtls_ecp_tls_write_group_fn = (void *)0x0bf729b4;
 80028e6:	9b460f93          	addi	t6,a2,-1612
D:/work/WIFI_GD32VW/Github_GD32VW55x/MSDK/plf/src/init_rom_symbol.c:254
        mbedtls_ecp_tls_read_point_fn = (void *)0x0bf728c2;
 80028ea:	8a51ae23          	sw	t0,-1860(gp) # 2000041c <mbedtls_ecp_tls_read_point_fn>
D:/work/WIFI_GD32VW/Github_GD32VW55x/MSDK/plf/src/init_rom_symbol.c:257
        mbedtls_internal_md5_process_fn = (void *)0x0bf764d6;
 80028ee:	0bf767b7          	lui	a5,0xbf76
D:/work/WIFI_GD32VW/Github_GD32VW55x/MSDK/plf/src/init_rom_symbol.c:255
        mbedtls_ecp_tls_write_group_fn = (void *)0x0bf729b4;
 80028f2:	8df1a023          	sw	t6,-1856(gp) # 20000420 <mbedtls_ecp_tls_write_group_fn>
D:/work/WIFI_GD32VW/Github_GD32VW55x/MSDK/plf/src/init_rom_symbol.c:256
        mbedtls_ecp_tls_write_point_fn = (void *)0x0bf728f6;
 80028f6:	8f660613          	addi	a2,a2,-1802
D:/work/WIFI_GD32VW/Github_GD32VW55x/MSDK/plf/src/init_rom_symbol.c:257
        mbedtls_internal_md5_process_fn = (void *)0x0bf764d6;
 80028fa:	4d678f13          	addi	t5,a5,1238 # bf764d6 <mbedtls_mpi_mul_mpi_sw+0x7cf6>
D:/work/WIFI_GD32VW/Github_GD32VW55x/MSDK/plf/src/init_rom_symbol.c:256
        mbedtls_ecp_tls_write_point_fn = (void *)0x0bf728f6;
 80028fe:	8cc1a223          	sw	a2,-1852(gp) # 20000424 <mbedtls_ecp_tls_write_point_fn>
D:/work/WIFI_GD32VW/Github_GD32VW55x/MSDK/plf/src/init_rom_symbol.c:258
        mbedtls_internal_sha256_process_fn = (void *)0x0bf76312;
 8002902:	31278e93          	addi	t4,a5,786
D:/work/WIFI_GD32VW/Github_GD32VW55x/MSDK/plf/src/init_rom_symbol.c:257
        mbedtls_internal_md5_process_fn = (void *)0x0bf764d6;
 8002906:	8de1a423          	sw	t5,-1848(gp) # 20000428 <mbedtls_internal_md5_process_fn>
D:/work/WIFI_GD32VW/Github_GD32VW55x/MSDK/plf/src/init_rom_symbol.c:258
        mbedtls_internal_sha256_process_fn = (void *)0x0bf76312;
 800290a:	8dd1a623          	sw	t4,-1844(gp) # 2000042c <mbedtls_internal_sha256_process_fn>
D:/work/WIFI_GD32VW/Github_GD32VW55x/MSDK/plf/src/init_rom_symbol.c:260
        mbedtls_md5_clone_fn = (void *)0x0bf76468;
 800290e:	46878313          	addi	t1,a5,1128
D:/work/WIFI_GD32VW/Github_GD32VW55x/MSDK/plf/src/init_rom_symbol.c:259
        mbedtls_md5_fn = (void *)0x0bf77352;
 8002912:	8dc1ae23          	sw	t3,-1828(gp) # 2000043c <mbedtls_md5_fn>
D:/work/WIFI_GD32VW/Github_GD32VW55x/MSDK/plf/src/init_rom_symbol.c:262
        mbedtls_md5_finish_ret_fn = (void *)0x0bf7721e;
 8002916:	0bf77437          	lui	s0,0xbf77
D:/work/WIFI_GD32VW/Github_GD32VW55x/MSDK/plf/src/init_rom_symbol.c:260
        mbedtls_md5_clone_fn = (void *)0x0bf76468;
 800291a:	8c61a823          	sw	t1,-1840(gp) # 20000430 <mbedtls_md5_clone_fn>
D:/work/WIFI_GD32VW/Github_GD32VW55x/MSDK/plf/src/init_rom_symbol.c:261
        mbedtls_md5_finish_fn = (void *)0x0bf7731c;
 800291e:	8d11aa23          	sw	a7,-1836(gp) # 20000434 <mbedtls_md5_finish_fn>
D:/work/WIFI_GD32VW/Github_GD32VW55x/MSDK/plf/src/init_rom_symbol.c:262
        mbedtls_md5_finish_ret_fn = (void *)0x0bf7721e;
 8002922:	21e40613          	addi	a2,s0,542 # bf7721e <mbedtls_mpi_mul_mpi_sw+0x8a3e>
 8002926:	8cc1ac23          	sw	a2,-1832(gp) # 20000438 <mbedtls_md5_finish_ret_fn>
D:/work/WIFI_GD32VW/Github_GD32VW55x/MSDK/plf/src/init_rom_symbol.c:263
        mbedtls_md5_free_fn = (void *)0x0bf7645c;
 800292a:	0bf76637          	lui	a2,0xbf76
 800292e:	45c60493          	addi	s1,a2,1116 # bf7645c <mbedtls_mpi_mul_mpi_sw+0x7c7c>
 8002932:	8e91a023          	sw	s1,-1824(gp) # 20000440 <mbedtls_md5_free_fn>
D:/work/WIFI_GD32VW/Github_GD32VW55x/MSDK/plf/src/init_rom_symbol.c:264
        mbedtls_md5_init_fn = (void *)0x0bf76452;
 8002936:	45260493          	addi	s1,a2,1106
 800293a:	8e91a223          	sw	s1,-1820(gp) # 20000444 <mbedtls_md5_init_fn>
D:/work/WIFI_GD32VW/Github_GD32VW55x/MSDK/plf/src/init_rom_symbol.c:265
        mbedtls_md5_process_fn = (void *)0x0bf77208;
 800293e:	20840493          	addi	s1,s0,520
 8002942:	8e91a423          	sw	s1,-1816(gp) # 20000448 <mbedtls_md5_process_fn>
D:/work/WIFI_GD32VW/Github_GD32VW55x/MSDK/plf/src/init_rom_symbol.c:266
        mbedtls_md5_ret_fn = (void *)0x0bf77320;
 8002946:	32040493          	addi	s1,s0,800
 800294a:	8e91a623          	sw	s1,-1812(gp) # 2000044c <mbedtls_md5_ret_fn>
D:/work/WIFI_GD32VW/Github_GD32VW55x/MSDK/plf/src/init_rom_symbol.c:267
        mbedtls_md5_starts_fn = (void *)0x0bf764a4;
 800294e:	4a460493          	addi	s1,a2,1188
D:/work/WIFI_GD32VW/Github_GD32VW55x/MSDK/plf/src/init_rom_symbol.c:270
        mbedtls_md5_update_ret_fn = (void *)0x0bf7720c;
 8002952:	4bb2                	lw	s7,12(sp)
D:/work/WIFI_GD32VW/Github_GD32VW55x/MSDK/plf/src/init_rom_symbol.c:267
        mbedtls_md5_starts_fn = (void *)0x0bf764a4;
 8002954:	8e91a823          	sw	s1,-1808(gp) # 20000450 <mbedtls_md5_starts_fn>
D:/work/WIFI_GD32VW/Github_GD32VW55x/MSDK/plf/src/init_rom_symbol.c:268
        mbedtls_md5_starts_ret_fn = (void *)0x0bf76470;
 8002958:	47060493          	addi	s1,a2,1136
 800295c:	8e91aa23          	sw	s1,-1804(gp) # 20000454 <mbedtls_md5_starts_ret_fn>
D:/work/WIFI_GD32VW/Github_GD32VW55x/MSDK/plf/src/init_rom_symbol.c:269
        mbedtls_md5_update_fn = (void *)0x0bf77216;
 8002960:	21640413          	addi	s0,s0,534
 8002964:	8e81ac23          	sw	s0,-1800(gp) # 20000458 <mbedtls_md5_update_fn>
D:/work/WIFI_GD32VW/Github_GD32VW55x/MSDK/plf/src/init_rom_symbol.c:271
        mbedtls_mpi_div_int_fn = (void *)0x0bf6f1c6;
 8002968:	0bf6f437          	lui	s0,0xbf6f
 800296c:	0bf6f537          	lui	a0,0xbf6f
D:/work/WIFI_GD32VW/Github_GD32VW55x/MSDK/plf/src/init_rom_symbol.c:270
        mbedtls_md5_update_ret_fn = (void *)0x0bf7720c;
 8002970:	8f71ae23          	sw	s7,-1796(gp) # 2000045c <mbedtls_md5_update_ret_fn>
D:/work/WIFI_GD32VW/Github_GD32VW55x/MSDK/plf/src/init_rom_symbol.c:271
        mbedtls_mpi_div_int_fn = (void *)0x0bf6f1c6;
 8002974:	1c640493          	addi	s1,s0,454 # bf6f1c6 <mbedtls_mpi_mul_mpi_sw+0x9e6>
D:/work/WIFI_GD32VW/Github_GD32VW55x/MSDK/plf/src/init_rom_symbol.c:273
        mbedtls_mpi_exp_mod_fn = (void *)0x0bf6fb18;
 8002978:	0bf70837          	lui	a6,0xbf70
D:/work/WIFI_GD32VW/Github_GD32VW55x/MSDK/plf/src/init_rom_symbol.c:271
        mbedtls_mpi_div_int_fn = (void *)0x0bf6f1c6;
 800297c:	9091a023          	sw	s1,-1792(gp) # 20000460 <mbedtls_mpi_div_int_fn>
D:/work/WIFI_GD32VW/Github_GD32VW55x/MSDK/plf/src/init_rom_symbol.c:274
        mbedtls_mpi_exp_mod_sw_fn = (void *)0x0bf6f508;
 8002980:	50850d13          	addi	s10,a0,1288 # bf6f508 <mbedtls_mpi_mul_mpi_sw+0xd28>
D:/work/WIFI_GD32VW/Github_GD32VW55x/MSDK/plf/src/init_rom_symbol.c:272
        mbedtls_mpi_div_mpi_fn = (void *)0x0bf6ecda;
 8002984:	cda40413          	addi	s0,s0,-806
 8002988:	9081a223          	sw	s0,-1788(gp) # 20000464 <mbedtls_mpi_div_mpi_fn>
D:/work/WIFI_GD32VW/Github_GD32VW55x/MSDK/plf/src/init_rom_symbol.c:275
        mbedtls_mpi_fill_random_fn = (void *)0x0bf6fe86;
 800298c:	e8680c93          	addi	s9,a6,-378 # bf6fe86 <mbedtls_mpi_mul_mpi_sw+0x16a6>
D:/work/WIFI_GD32VW/Github_GD32VW55x/MSDK/plf/src/init_rom_symbol.c:274
        mbedtls_mpi_exp_mod_sw_fn = (void *)0x0bf6f508;
 8002990:	91a1a623          	sw	s10,-1780(gp) # 2000046c <mbedtls_mpi_exp_mod_sw_fn>
D:/work/WIFI_GD32VW/Github_GD32VW55x/MSDK/plf/src/init_rom_symbol.c:276
        mbedtls_mpi_gcd_fn = (void *)0x0bf6fc8e;
 8002994:	c8e80c13          	addi	s8,a6,-882
D:/work/WIFI_GD32VW/Github_GD32VW55x/MSDK/plf/src/init_rom_symbol.c:275
        mbedtls_mpi_fill_random_fn = (void *)0x0bf6fe86;
 8002998:	9191a823          	sw	s9,-1776(gp) # 20000470 <mbedtls_mpi_fill_random_fn>
D:/work/WIFI_GD32VW/Github_GD32VW55x/MSDK/plf/src/init_rom_symbol.c:277
        mbedtls_mpi_gen_prime_fn = (void *)0x0bf70584;
 800299c:	58480b93          	addi	s7,a6,1412
D:/work/WIFI_GD32VW/Github_GD32VW55x/MSDK/plf/src/init_rom_symbol.c:276
        mbedtls_mpi_gcd_fn = (void *)0x0bf6fc8e;
 80029a0:	9181aa23          	sw	s8,-1772(gp) # 20000474 <mbedtls_mpi_gcd_fn>
D:/work/WIFI_GD32VW/Github_GD32VW55x/MSDK/plf/src/init_rom_symbol.c:278
        mbedtls_mpi_inv_mod_fn = (void *)0x0bf701b4;
 80029a4:	1b480b13          	addi	s6,a6,436
D:/work/WIFI_GD32VW/Github_GD32VW55x/MSDK/plf/src/init_rom_symbol.c:277
        mbedtls_mpi_gen_prime_fn = (void *)0x0bf70584;
 80029a8:	9171ac23          	sw	s7,-1768(gp) # 20000478 <mbedtls_mpi_gen_prime_fn>
D:/work/WIFI_GD32VW/Github_GD32VW55x/MSDK/plf/src/init_rom_symbol.c:279
        mbedtls_mpi_is_prime_fn = (void *)0x0bf70578   ;
 80029ac:	57880a93          	addi	s5,a6,1400
D:/work/WIFI_GD32VW/Github_GD32VW55x/MSDK/plf/src/init_rom_symbol.c:278
        mbedtls_mpi_inv_mod_fn = (void *)0x0bf701b4;
 80029b0:	9161ae23          	sw	s6,-1764(gp) # 2000047c <mbedtls_mpi_inv_mod_fn>
D:/work/WIFI_GD32VW/Github_GD32VW55x/MSDK/plf/src/init_rom_symbol.c:279
        mbedtls_mpi_is_prime_fn = (void *)0x0bf70578   ;
 80029b4:	9351a223          	sw	s5,-1756(gp) # 20000484 <mbedtls_mpi_is_prime_fn>
D:/work/WIFI_GD32VW/Github_GD32VW55x/MSDK/plf/src/init_rom_symbol.c:280
        mbedtls_mpi_is_prime_ext_fn = (void *)0x0bf704d6;
 80029b8:	4d680813          	addi	a6,a6,1238
D:/work/WIFI_GD32VW/Github_GD32VW55x/MSDK/plf/src/init_rom_symbol.c:281
        mbedtls_mpi_mod_int_fn = (void *)0x0bf6f28c;
 80029bc:	28c50a13          	addi	s4,a0,652
D:/work/WIFI_GD32VW/Github_GD32VW55x/MSDK/plf/src/init_rom_symbol.c:280
        mbedtls_mpi_is_prime_ext_fn = (void *)0x0bf704d6;
 80029c0:	9301a023          	sw	a6,-1760(gp) # 20000480 <mbedtls_mpi_is_prime_ext_fn>
D:/work/WIFI_GD32VW/Github_GD32VW55x/MSDK/plf/src/init_rom_symbol.c:282
        mbedtls_mpi_mod_mpi_fn = (void *)0x0bf6f1f0;
 80029c4:	1f050993          	addi	s3,a0,496
D:/work/WIFI_GD32VW/Github_GD32VW55x/MSDK/plf/src/init_rom_symbol.c:281
        mbedtls_mpi_mod_int_fn = (void *)0x0bf6f28c;
 80029c8:	9341a423          	sw	s4,-1752(gp) # 20000488 <mbedtls_mpi_mod_int_fn>
D:/work/WIFI_GD32VW/Github_GD32VW55x/MSDK/plf/src/init_rom_symbol.c:283
        mbedtls_mpi_mul_int_fn = (void *)0x0bf6ecc0;
 80029cc:	cc050913          	addi	s2,a0,-832
D:/work/WIFI_GD32VW/Github_GD32VW55x/MSDK/plf/src/init_rom_symbol.c:282
        mbedtls_mpi_mod_mpi_fn = (void *)0x0bf6f1f0;
 80029d0:	9331a623          	sw	s3,-1748(gp) # 2000048c <mbedtls_mpi_mod_mpi_fn>
D:/work/WIFI_GD32VW/Github_GD32VW55x/MSDK/plf/src/init_rom_symbol.c:273
        mbedtls_mpi_exp_mod_fn = (void *)0x0bf6fb18;
 80029d4:	0bf70437          	lui	s0,0xbf70
D:/work/WIFI_GD32VW/Github_GD32VW55x/MSDK/plf/src/init_rom_symbol.c:284
        mbedtls_mpi_mul_mpi_fn = (void *)0x0bf6ea92;
 80029d8:	a9250493          	addi	s1,a0,-1390
D:/work/WIFI_GD32VW/Github_GD32VW55x/MSDK/plf/src/init_rom_symbol.c:283
        mbedtls_mpi_mul_int_fn = (void *)0x0bf6ecc0;
 80029dc:	9321a823          	sw	s2,-1744(gp) # 20000490 <mbedtls_mpi_mul_int_fn>
D:/work/WIFI_GD32VW/Github_GD32VW55x/MSDK/plf/src/init_rom_symbol.c:273
        mbedtls_mpi_exp_mod_fn = (void *)0x0bf6fb18;
 80029e0:	b1840413          	addi	s0,s0,-1256 # bf6fb18 <mbedtls_mpi_mul_mpi_sw+0x1338>
 80029e4:	9081a423          	sw	s0,-1784(gp) # 20000468 <mbedtls_mpi_exp_mod_fn>
D:/work/WIFI_GD32VW/Github_GD32VW55x/MSDK/plf/src/init_rom_symbol.c:284
        mbedtls_mpi_mul_mpi_fn = (void *)0x0bf6ea92;
 80029e8:	9291aa23          	sw	s1,-1740(gp) # 20000494 <mbedtls_mpi_mul_mpi_fn>
D:/work/WIFI_GD32VW/Github_GD32VW55x/MSDK/plf/src/init_rom_symbol.c:285
        mbedtls_mpi_read_string_fn = (void *)0x0bf6eaa8;
 80029ec:	aa850413          	addi	s0,a0,-1368
 80029f0:	9281ac23          	sw	s0,-1736(gp) # 20000498 <mbedtls_mpi_read_string_fn>
D:/work/WIFI_GD32VW/Github_GD32VW55x/MSDK/plf/src/init_rom_symbol.c:286
        mbedtls_mpi_write_string_fn = (void *)0x0bf6f2c0;
 80029f4:	2c050513          	addi	a0,a0,704
D:/work/WIFI_GD32VW/Github_GD32VW55x/MSDK/plf/src/init_rom_symbol.c:287
        mbedtls_rsa_check_privkey_fn = (void *)0x0bf74536;
 80029f8:	53670393          	addi	t2,a4,1334
D:/work/WIFI_GD32VW/Github_GD32VW55x/MSDK/plf/src/init_rom_symbol.c:286
        mbedtls_mpi_write_string_fn = (void *)0x0bf6f2c0;
 80029fc:	92a1ae23          	sw	a0,-1732(gp) # 2000049c <mbedtls_mpi_write_string_fn>
D:/work/WIFI_GD32VW/Github_GD32VW55x/MSDK/plf/src/init_rom_symbol.c:288
        mbedtls_rsa_check_pub_priv_fn = (void *)0x0bf747cc;
 8002a00:	7cc70293          	addi	t0,a4,1996
D:/work/WIFI_GD32VW/Github_GD32VW55x/MSDK/plf/src/init_rom_symbol.c:287
        mbedtls_rsa_check_privkey_fn = (void *)0x0bf74536;
 8002a04:	9471a023          	sw	t2,-1728(gp) # 200004a0 <mbedtls_rsa_check_privkey_fn>
D:/work/WIFI_GD32VW/Github_GD32VW55x/MSDK/plf/src/init_rom_symbol.c:289
        mbedtls_rsa_check_pubkey_fn = (void *)0x0bf744d4;
 8002a08:	4d470f93          	addi	t6,a4,1236
D:/work/WIFI_GD32VW/Github_GD32VW55x/MSDK/plf/src/init_rom_symbol.c:288
        mbedtls_rsa_check_pub_priv_fn = (void *)0x0bf747cc;
 8002a0c:	9451a223          	sw	t0,-1724(gp) # 200004a4 <mbedtls_rsa_check_pub_priv_fn>
D:/work/WIFI_GD32VW/Github_GD32VW55x/MSDK/plf/src/init_rom_symbol.c:290
        mbedtls_rsa_complete_fn = (void *)0x0bf74054;
 8002a10:	05470f13          	addi	t5,a4,84
D:/work/WIFI_GD32VW/Github_GD32VW55x/MSDK/plf/src/init_rom_symbol.c:289
        mbedtls_rsa_check_pubkey_fn = (void *)0x0bf744d4;
 8002a14:	95f1a423          	sw	t6,-1720(gp) # 200004a8 <mbedtls_rsa_check_pubkey_fn>
D:/work/WIFI_GD32VW/Github_GD32VW55x/MSDK/plf/src/init_rom_symbol.c:291
        mbedtls_rsa_copy_fn = (void *)0x0bf75cf6;
 8002a18:	cf678e93          	addi	t4,a5,-778
D:/work/WIFI_GD32VW/Github_GD32VW55x/MSDK/plf/src/init_rom_symbol.c:290
        mbedtls_rsa_complete_fn = (void *)0x0bf74054;
 8002a1c:	95e1a623          	sw	t5,-1716(gp) # 200004ac <mbedtls_rsa_complete_fn>
D:/work/WIFI_GD32VW/Github_GD32VW55x/MSDK/plf/src/init_rom_symbol.c:292
        mbedtls_rsa_export_fn = (void *)0x0bf742ec;
 8002a20:	2ec70e13          	addi	t3,a4,748
D:/work/WIFI_GD32VW/Github_GD32VW55x/MSDK/plf/src/init_rom_symbol.c:291
        mbedtls_rsa_copy_fn = (void *)0x0bf75cf6;
 8002a24:	95d1a823          	sw	t4,-1712(gp) # 200004b0 <mbedtls_rsa_copy_fn>
D:/work/WIFI_GD32VW/Github_GD32VW55x/MSDK/plf/src/init_rom_symbol.c:293
        mbedtls_rsa_export_crt_fn = (void *)0x0bf743ee;
 8002a28:	3ee70313          	addi	t1,a4,1006
D:/work/WIFI_GD32VW/Github_GD32VW55x/MSDK/plf/src/init_rom_symbol.c:292
        mbedtls_rsa_export_fn = (void *)0x0bf742ec;
 8002a2c:	95c1ac23          	sw	t3,-1704(gp) # 200004b8 <mbedtls_rsa_export_fn>
D:/work/WIFI_GD32VW/Github_GD32VW55x/MSDK/plf/src/init_rom_symbol.c:294
        mbedtls_rsa_export_raw_fn = (void *)0x0bf741b4;
 8002a30:	1b470893          	addi	a7,a4,436
D:/work/WIFI_GD32VW/Github_GD32VW55x/MSDK/plf/src/init_rom_symbol.c:293
        mbedtls_rsa_export_crt_fn = (void *)0x0bf743ee;
 8002a34:	9461aa23          	sw	t1,-1708(gp) # 200004b4 <mbedtls_rsa_export_crt_fn>
D:/work/WIFI_GD32VW/Github_GD32VW55x/MSDK/plf/src/init_rom_symbol.c:295
        mbedtls_rsa_free_fn = (void *)0x0bf75e00;
 8002a38:	e0078613          	addi	a2,a5,-512
D:/work/WIFI_GD32VW/Github_GD32VW55x/MSDK/plf/src/init_rom_symbol.c:294
        mbedtls_rsa_export_raw_fn = (void *)0x0bf741b4;
 8002a3c:	9511ae23          	sw	a7,-1700(gp) # 200004bc <mbedtls_rsa_export_raw_fn>
D:/work/WIFI_GD32VW/Github_GD32VW55x/MSDK/plf/src/init_rom_symbol.c:296
        mbedtls_rsa_gen_key_fn = (void *)0x0bf745a6;
 8002a40:	5a670693          	addi	a3,a4,1446
D:/work/WIFI_GD32VW/Github_GD32VW55x/MSDK/plf/src/init_rom_symbol.c:295
        mbedtls_rsa_free_fn = (void *)0x0bf75e00;
 8002a44:	96c1a023          	sw	a2,-1696(gp) # 200004c0 <mbedtls_rsa_free_fn>
D:/work/WIFI_GD32VW/Github_GD32VW55x/MSDK/plf/src/init_rom_symbol.c:297
        mbedtls_rsa_get_len_fn = (void *)0x0bf744d0;
 8002a48:	0bf74537          	lui	a0,0xbf74
D:/work/WIFI_GD32VW/Github_GD32VW55x/MSDK/plf/src/init_rom_symbol.c:296
        mbedtls_rsa_gen_key_fn = (void *)0x0bf745a6;
 8002a4c:	96d1a223          	sw	a3,-1692(gp) # 200004c4 <mbedtls_rsa_gen_key_fn>
D:/work/WIFI_GD32VW/Github_GD32VW55x/MSDK/plf/src/init_rom_symbol.c:297
        mbedtls_rsa_get_len_fn = (void *)0x0bf744d0;
 8002a50:	4d050413          	addi	s0,a0,1232 # bf744d0 <mbedtls_mpi_mul_mpi_sw+0x5cf0>
 8002a54:	9681a423          	sw	s0,-1688(gp) # 200004c8 <mbedtls_rsa_get_len_fn>
D:/work/WIFI_GD32VW/Github_GD32VW55x/MSDK/plf/src/init_rom_symbol.c:298
        mbedtls_rsa_import_fn = (void *)0x0bf73f28;
 8002a58:	f2850413          	addi	s0,a0,-216
 8002a5c:	9681a623          	sw	s0,-1684(gp) # 200004cc <mbedtls_rsa_import_fn>
D:/work/WIFI_GD32VW/Github_GD32VW55x/MSDK/plf/src/init_rom_symbol.c:299
        mbedtls_rsa_import_raw_fn = (void *)0x0bf73fba;
 8002a60:	fba50413          	addi	s0,a0,-70
 8002a64:	9681a823          	sw	s0,-1680(gp) # 200004d0 <mbedtls_rsa_import_raw_fn>
D:/work/WIFI_GD32VW/Github_GD32VW55x/MSDK/plf/src/init_rom_symbol.c:300
        mbedtls_rsa_init_fn = (void *)0x0bf74498;
 8002a68:	49850513          	addi	a0,a0,1176
 8002a6c:	96a1aa23          	sw	a0,-1676(gp) # 200004d4 <mbedtls_rsa_init_fn>
D:/work/WIFI_GD32VW/Github_GD32VW55x/MSDK/plf/src/init_rom_symbol.c:301
        mbedtls_rsa_pkcs1_decrypt_fn = (void *)0x0bf755f6;
 8002a70:	0bf75537          	lui	a0,0xbf75
 8002a74:	5f650413          	addi	s0,a0,1526 # bf755f6 <mbedtls_mpi_mul_mpi_sw+0x6e16>
 8002a78:	9681ac23          	sw	s0,-1672(gp) # 200004d8 <mbedtls_rsa_pkcs1_decrypt_fn>
D:/work/WIFI_GD32VW/Github_GD32VW55x/MSDK/plf/src/init_rom_symbol.c:303
        mbedtls_rsa_pkcs1_sign_fn = (void *)0x0bf75928;
 8002a7c:	0bf76637          	lui	a2,0xbf76
D:/work/WIFI_GD32VW/Github_GD32VW55x/MSDK/plf/src/init_rom_symbol.c:302
        mbedtls_rsa_pkcs1_encrypt_fn = (void *)0x0bf75138;
 8002a80:	13850413          	addi	s0,a0,312
 8002a84:	9681ae23          	sw	s0,-1668(gp) # 200004dc <mbedtls_rsa_pkcs1_encrypt_fn>
D:/work/WIFI_GD32VW/Github_GD32VW55x/MSDK/plf/src/init_rom_symbol.c:303
        mbedtls_rsa_pkcs1_sign_fn = (void *)0x0bf75928;
 8002a88:	92860413          	addi	s0,a2,-1752 # bf75928 <mbedtls_mpi_mul_mpi_sw+0x7148>
D:/work/WIFI_GD32VW/Github_GD32VW55x/MSDK/plf/src/init_rom_symbol.c:301
        mbedtls_rsa_pkcs1_decrypt_fn = (void *)0x0bf755f6;
 8002a8c:	0bf755b7          	lui	a1,0xbf75
D:/work/WIFI_GD32VW/Github_GD32VW55x/MSDK/plf/src/init_rom_symbol.c:303
        mbedtls_rsa_pkcs1_sign_fn = (void *)0x0bf75928;
 8002a90:	9881a023          	sw	s0,-1664(gp) # 200004e0 <mbedtls_rsa_pkcs1_sign_fn>
D:/work/WIFI_GD32VW/Github_GD32VW55x/MSDK/plf/src/init_rom_symbol.c:304
        mbedtls_rsa_pkcs1_verify_fn = (void *)0x0bf75c98;
 8002a94:	c9860613          	addi	a2,a2,-872
 8002a98:	98c1a223          	sw	a2,-1660(gp) # 200004e4 <mbedtls_rsa_pkcs1_verify_fn>
D:/work/WIFI_GD32VW/Github_GD32VW55x/MSDK/plf/src/init_rom_symbol.c:307
        mbedtls_rsa_public_fn = (void *)0x0bf74814;
 8002a9c:	81458a93          	addi	s5,a1,-2028 # bf74814 <mbedtls_mpi_mul_mpi_sw+0x6034>
D:/work/WIFI_GD32VW/Github_GD32VW55x/MSDK/plf/src/init_rom_symbol.c:305
        mbedtls_rsa_private_fn = (void *)0x0bf74e92;
 8002aa0:	e9250613          	addi	a2,a0,-366
 8002aa4:	98c1a423          	sw	a2,-1656(gp) # 200004e8 <mbedtls_rsa_private_fn>
D:/work/WIFI_GD32VW/Github_GD32VW55x/MSDK/plf/src/init_rom_symbol.c:308
        mbedtls_rsa_rsaes_oaep_decrypt_fn = (void *)0x0bf7516c;
 8002aa8:	16c58a13          	addi	s4,a1,364
D:/work/WIFI_GD32VW/Github_GD32VW55x/MSDK/plf/src/init_rom_symbol.c:307
        mbedtls_rsa_public_fn = (void *)0x0bf74814;
 8002aac:	9951a823          	sw	s5,-1648(gp) # 200004f0 <mbedtls_rsa_public_fn>
D:/work/WIFI_GD32VW/Github_GD32VW55x/MSDK/plf/src/init_rom_symbol.c:309
        mbedtls_rsa_rsaes_oaep_encrypt_fn = (void *)0x0bf74ea6;
 8002ab0:	ea658993          	addi	s3,a1,-346
D:/work/WIFI_GD32VW/Github_GD32VW55x/MSDK/plf/src/init_rom_symbol.c:308
        mbedtls_rsa_rsaes_oaep_decrypt_fn = (void *)0x0bf7516c;
 8002ab4:	9941aa23          	sw	s4,-1644(gp) # 200004f4 <mbedtls_rsa_rsaes_oaep_decrypt_fn>
D:/work/WIFI_GD32VW/Github_GD32VW55x/MSDK/plf/src/init_rom_symbol.c:310
        mbedtls_rsa_rsaes_pkcs1_v15_decrypt_fn = (void *)0x0bf7539e;
 8002ab8:	39e58913          	addi	s2,a1,926
D:/work/WIFI_GD32VW/Github_GD32VW55x/MSDK/plf/src/init_rom_symbol.c:309
        mbedtls_rsa_rsaes_oaep_encrypt_fn = (void *)0x0bf74ea6;
 8002abc:	9931ac23          	sw	s3,-1640(gp) # 200004f8 <mbedtls_rsa_rsaes_oaep_encrypt_fn>
D:/work/WIFI_GD32VW/Github_GD32VW55x/MSDK/plf/src/init_rom_symbol.c:311
        mbedtls_rsa_rsaes_pkcs1_v15_encrypt_fn = (void *)0x0bf7500c;
 8002ac0:	00c58493          	addi	s1,a1,12
D:/work/WIFI_GD32VW/Github_GD32VW55x/MSDK/plf/src/init_rom_symbol.c:310
        mbedtls_rsa_rsaes_pkcs1_v15_decrypt_fn = (void *)0x0bf7539e;
 8002ac4:	9921ae23          	sw	s2,-1636(gp) # 200004fc <mbedtls_rsa_rsaes_pkcs1_v15_decrypt_fn>
D:/work/WIFI_GD32VW/Github_GD32VW55x/MSDK/plf/src/init_rom_symbol.c:312
        mbedtls_rsa_rsassa_pkcs1_v15_sign_fn = (void *)0x0bf7581a;
 8002ac8:	81a78413          	addi	s0,a5,-2022
D:/work/WIFI_GD32VW/Github_GD32VW55x/MSDK/plf/src/init_rom_symbol.c:311
        mbedtls_rsa_rsaes_pkcs1_v15_encrypt_fn = (void *)0x0bf7500c;
 8002acc:	9a91a023          	sw	s1,-1632(gp) # 20000500 <mbedtls_rsa_rsaes_pkcs1_v15_encrypt_fn>
D:/work/WIFI_GD32VW/Github_GD32VW55x/MSDK/plf/src/init_rom_symbol.c:313
        mbedtls_rsa_rsassa_pkcs1_v15_verify_fn = (void *)0x0bf75b8e;
 8002ad0:	b8e78393          	addi	t2,a5,-1138
D:/work/WIFI_GD32VW/Github_GD32VW55x/MSDK/plf/src/init_rom_symbol.c:312
        mbedtls_rsa_rsassa_pkcs1_v15_sign_fn = (void *)0x0bf7581a;
 8002ad4:	9a81a223          	sw	s0,-1628(gp) # 20000504 <mbedtls_rsa_rsassa_pkcs1_v15_sign_fn>
D:/work/WIFI_GD32VW/Github_GD32VW55x/MSDK/plf/src/init_rom_symbol.c:313
        mbedtls_rsa_rsassa_pkcs1_v15_verify_fn = (void *)0x0bf75b8e;
 8002ad8:	9a71a423          	sw	t2,-1624(gp) # 20000508 <mbedtls_rsa_rsassa_pkcs1_v15_verify_fn>
D:/work/WIFI_GD32VW/Github_GD32VW55x/MSDK/plf/src/init_rom_symbol.c:314
        mbedtls_rsa_rsassa_pss_sign_fn = (void *)0x0bf75630;
 8002adc:	63058593          	addi	a1,a1,1584
D:/work/WIFI_GD32VW/Github_GD32VW55x/MSDK/plf/src/init_rom_symbol.c:315
        mbedtls_rsa_rsassa_pss_verify_fn = (void *)0x0bf75b6e;
 8002ae0:	b6e78f93          	addi	t6,a5,-1170
D:/work/WIFI_GD32VW/Github_GD32VW55x/MSDK/plf/src/init_rom_symbol.c:314
        mbedtls_rsa_rsassa_pss_sign_fn = (void *)0x0bf75630;
 8002ae4:	9ab1a623          	sw	a1,-1620(gp) # 2000050c <mbedtls_rsa_rsassa_pss_sign_fn>
D:/work/WIFI_GD32VW/Github_GD32VW55x/MSDK/plf/src/init_rom_symbol.c:316
        mbedtls_rsa_rsassa_pss_verify_ext_fn = (void *)0x0bf75946;
 8002ae8:	94678f13          	addi	t5,a5,-1722
D:/work/WIFI_GD32VW/Github_GD32VW55x/MSDK/plf/src/init_rom_symbol.c:315
        mbedtls_rsa_rsassa_pss_verify_fn = (void *)0x0bf75b6e;
 8002aec:	9bf1aa23          	sw	t6,-1612(gp) # 20000514 <mbedtls_rsa_rsassa_pss_verify_fn>
D:/work/WIFI_GD32VW/Github_GD32VW55x/MSDK/plf/src/init_rom_symbol.c:316
        mbedtls_rsa_rsassa_pss_verify_ext_fn = (void *)0x0bf75946;
 8002af0:	9be1a823          	sw	t5,-1616(gp) # 20000510 <mbedtls_rsa_rsassa_pss_verify_ext_fn>
D:/work/WIFI_GD32VW/Github_GD32VW55x/MSDK/plf/src/init_rom_symbol.c:317
        mbedtls_rsa_set_padding_fn = (void *)0x0bf744c6;
 8002af4:	4c670713          	addi	a4,a4,1222
D:/work/WIFI_GD32VW/Github_GD32VW55x/MSDK/plf/src/init_rom_symbol.c:318
        mbedtls_sha256_clone_fn = (void *)0x0bf76374;
 8002af8:	37478e93          	addi	t4,a5,884
D:/work/WIFI_GD32VW/Github_GD32VW55x/MSDK/plf/src/init_rom_symbol.c:317
        mbedtls_rsa_set_padding_fn = (void *)0x0bf744c6;
 8002afc:	9ae1ac23          	sw	a4,-1608(gp) # 20000518 <mbedtls_rsa_set_padding_fn>
D:/work/WIFI_GD32VW/Github_GD32VW55x/MSDK/plf/src/init_rom_symbol.c:319
        mbedtls_sha256_finish_fn = (void *)0x0bf7642e;
 8002b00:	42e78e13          	addi	t3,a5,1070
D:/work/WIFI_GD32VW/Github_GD32VW55x/MSDK/plf/src/init_rom_symbol.c:318
        mbedtls_sha256_clone_fn = (void *)0x0bf76374;
 8002b04:	9bd1ae23          	sw	t4,-1604(gp) # 2000051c <mbedtls_sha256_clone_fn>
D:/work/WIFI_GD32VW/Github_GD32VW55x/MSDK/plf/src/init_rom_symbol.c:320
        mbedtls_sha256_finish_ret_fn = (void *)0x0bf76406;
 8002b08:	40678313          	addi	t1,a5,1030
D:/work/WIFI_GD32VW/Github_GD32VW55x/MSDK/plf/src/init_rom_symbol.c:319
        mbedtls_sha256_finish_fn = (void *)0x0bf7642e;
 8002b0c:	9dc1a023          	sw	t3,-1600(gp) # 20000520 <mbedtls_sha256_finish_fn>
D:/work/WIFI_GD32VW/Github_GD32VW55x/MSDK/plf/src/init_rom_symbol.c:321
        mbedtls_sha256_free_fn = (void *)0x0bf76362;
 8002b10:	36278893          	addi	a7,a5,866
D:/work/WIFI_GD32VW/Github_GD32VW55x/MSDK/plf/src/init_rom_symbol.c:320
        mbedtls_sha256_finish_ret_fn = (void *)0x0bf76406;
 8002b14:	9c61a223          	sw	t1,-1596(gp) # 20000524 <mbedtls_sha256_finish_ret_fn>
D:/work/WIFI_GD32VW/Github_GD32VW55x/MSDK/plf/src/init_rom_symbol.c:322
        mbedtls_sha256_init_fn = (void *)0x0bf7635e;
 8002b18:	35e78813          	addi	a6,a5,862
D:/work/WIFI_GD32VW/Github_GD32VW55x/MSDK/plf/src/init_rom_symbol.c:321
        mbedtls_sha256_free_fn = (void *)0x0bf76362;
 8002b1c:	9d11a423          	sw	a7,-1592(gp) # 20000528 <mbedtls_sha256_free_fn>
D:/work/WIFI_GD32VW/Github_GD32VW55x/MSDK/plf/src/init_rom_symbol.c:306
        mbedtls_rsa_private_sw_fn = (void *)0x0bf7496c;
 8002b20:	96c50613          	addi	a2,a0,-1684
D:/work/WIFI_GD32VW/Github_GD32VW55x/MSDK/plf/src/init_rom_symbol.c:322
        mbedtls_sha256_init_fn = (void *)0x0bf7635e;
 8002b24:	9d01a623          	sw	a6,-1588(gp) # 2000052c <mbedtls_sha256_init_fn>
D:/work/WIFI_GD32VW/Github_GD32VW55x/MSDK/plf/src/init_rom_symbol.c:323
        mbedtls_sha256_starts_fn = (void *)0x0bf763a6;
 8002b28:	3a678513          	addi	a0,a5,934
D:/work/WIFI_GD32VW/Github_GD32VW55x/MSDK/plf/src/init_rom_symbol.c:306
        mbedtls_rsa_private_sw_fn = (void *)0x0bf7496c;
 8002b2c:	98c1a623          	sw	a2,-1652(gp) # 200004ec <mbedtls_rsa_private_sw_fn>
D:/work/WIFI_GD32VW/Github_GD32VW55x/MSDK/plf/src/init_rom_symbol.c:323
        mbedtls_sha256_starts_fn = (void *)0x0bf763a6;
 8002b30:	9ca1a823          	sw	a0,-1584(gp) # 20000530 <mbedtls_sha256_starts_fn>
D:/work/WIFI_GD32VW/Github_GD32VW55x/MSDK/plf/src/init_rom_symbol.c:324
        mbedtls_sha256_starts_ret_fn = (void *)0x0bf7637c;
 8002b34:	37c78613          	addi	a2,a5,892
D:/work/WIFI_GD32VW/Github_GD32VW55x/MSDK/plf/src/init_rom_symbol.c:325
        mbedtls_sha256_update_fn = (void *)0x0bf763da;
 8002b38:	3da78693          	addi	a3,a5,986
D:/work/WIFI_GD32VW/Github_GD32VW55x/MSDK/plf/src/init_rom_symbol.c:324
        mbedtls_sha256_starts_ret_fn = (void *)0x0bf7637c;
 8002b3c:	9cc1aa23          	sw	a2,-1580(gp) # 20000534 <mbedtls_sha256_starts_ret_fn>
D:/work/WIFI_GD32VW/Github_GD32VW55x/MSDK/plf/src/init_rom_symbol.c:325
        mbedtls_sha256_update_fn = (void *)0x0bf763da;
 8002b40:	9cd1ac23          	sw	a3,-1576(gp) # 20000538 <mbedtls_sha256_update_fn>
D:/work/WIFI_GD32VW/Github_GD32VW55x/MSDK/plf/src/init_rom_symbol.c:326
        mbedtls_sha256_update_ret_fn = (void *)0x0bf763aa;
 8002b44:	3aa78793          	addi	a5,a5,938
 8002b48:	9cf1ae23          	sw	a5,-1572(gp) # 2000053c <mbedtls_sha256_update_ret_fn>
D:/work/WIFI_GD32VW/Github_GD32VW55x/MSDK/plf/src/init_rom_symbol.c:330
}
 8002b4c:	0141                	addi	sp,sp,16
 8002b4e:	4300006f          	j	8002f7e <__riscv_restore_12>

08002b52 <_close>:
_close():
 8002b52:	557d                	li	a0,-1
 8002b54:	8082                	ret

08002b56 <_fstat>:
_fstat():
 8002b56:	557d                	li	a0,-1
 8002b58:	8082                	ret

08002b5a <_isatty>:
_isatty():
D:/work/WIFI_GD32VW/Github_GD32VW55x/MSDK/plf/riscv/arch/lib/lib_hook_mbl.c:60
}

int _isatty(int fd)
{
    return 0;
}
 8002b5a:	4501                	li	a0,0
 8002b5c:	8082                	ret

08002b5e <_lseek>:
_lseek():
D:/work/WIFI_GD32VW/Github_GD32VW55x/MSDK/plf/riscv/arch/lib/lib_hook_mbl.c:65

int _lseek(int fd, int ptr, int dir)
{
    return -1;
}
 8002b5e:	557d                	li	a0,-1
 8002b60:	8082                	ret

08002b62 <_read>:
_read():
D:/work/WIFI_GD32VW/Github_GD32VW55x/MSDK/plf/riscv/arch/lib/lib_hook_mbl.c:70

int _read(int fd, void* ptr, size_t len)
{
    return -1;
}
 8002b62:	557d                	li	a0,-1
 8002b64:	8082                	ret

08002b66 <system_clock_160m_40m_hxtal>:
system_clock_160m_40m_hxtal():
D:/work/WIFI_GD32VW/Github_GD32VW55x/MSDK/plf/riscv/gd32vw55x/system_gd32vw55x.c:543
#if 0
    uint32_t stab_flag = 0U;
    uint32_t timeout = 0U;
#endif
    /* power up HXTAL */
    RCU_CTL |= RCU_CTL_HXTALPU;
 8002b66:	400247b7          	lui	a5,0x40024
 8002b6a:	8007a703          	lw	a4,-2048(a5) # 40023800 <_sp+0x2001ef00>
D:/work/WIFI_GD32VW/Github_GD32VW55x/MSDK/plf/riscv/gd32vw55x/system_gd32vw55x.c:568
        while(1){
        }
    }
#endif

    RCU_CTL |= RCU_CTL_HXTALREADY;
 8002b6e:	80000637          	lui	a2,0x80000
D:/work/WIFI_GD32VW/Github_GD32VW55x/MSDK/plf/riscv/gd32vw55x/system_gd32vw55x.c:581
    RCU_CFG0 |= RCU_APB1_CKAHB_DIV2;

    RCU_PLL |= RCU_PLLSRC_HXTAL;

    /* PLLDIG = 960/HSE */
    RCU_PLLDIGCFG1 = ((960 << 21) / (HXTAL_VALUE/1000000)) & 0x7FFFFFFF;
 8002b72:	03000537          	lui	a0,0x3000
D:/work/WIFI_GD32VW/Github_GD32VW55x/MSDK/plf/riscv/gd32vw55x/system_gd32vw55x.c:543
    RCU_CTL |= RCU_CTL_HXTALPU;
 8002b76:	29c71713          	bseti	a4,a4,0x1c
 8002b7a:	80e7a023          	sw	a4,-2048(a5)
D:/work/WIFI_GD32VW/Github_GD32VW55x/MSDK/plf/riscv/gd32vw55x/system_gd32vw55x.c:545
    RCU_CTL |= RCU_CTL_HXTALEN;
 8002b7e:	8007a703          	lw	a4,-2048(a5)
D:/work/WIFI_GD32VW/Github_GD32VW55x/MSDK/plf/riscv/gd32vw55x/system_gd32vw55x.c:591

    /* enable PLL */
    RCU_CFG1 |= (RCU_CFG1_RFPLLCALEN | RCU_CFG1_BGPU);
    RCU_CTL |= (RCU_CTL_PLLDIGEN | RCU_CTL_PLLDIGPU);
    /* wait until PLL is stable */
    while(0U == (RCU_CTL & RCU_CTL_PLLDIGSTB)){
 8002b82:	008006b7          	lui	a3,0x800
D:/work/WIFI_GD32VW/Github_GD32VW55x/MSDK/plf/riscv/gd32vw55x/system_gd32vw55x.c:545
    RCU_CTL |= RCU_CTL_HXTALEN;
 8002b86:	29071713          	bseti	a4,a4,0x10
 8002b8a:	80e7a023          	sw	a4,-2048(a5)
D:/work/WIFI_GD32VW/Github_GD32VW55x/MSDK/plf/riscv/gd32vw55x/system_gd32vw55x.c:568
    RCU_CTL |= RCU_CTL_HXTALREADY;
 8002b8e:	8007a583          	lw	a1,-2048(a5)
D:/work/WIFI_GD32VW/Github_GD32VW55x/MSDK/plf/riscv/gd32vw55x/system_gd32vw55x.c:591
    while(0U == (RCU_CTL & RCU_CTL_PLLDIGSTB)){
 8002b92:	40024737          	lui	a4,0x40024
D:/work/WIFI_GD32VW/Github_GD32VW55x/MSDK/plf/riscv/gd32vw55x/system_gd32vw55x.c:568
    RCU_CTL |= RCU_CTL_HXTALREADY;
 8002b96:	8dd1                	or	a1,a1,a2
 8002b98:	80b7a023          	sw	a1,-2048(a5)
D:/work/WIFI_GD32VW/Github_GD32VW55x/MSDK/plf/riscv/gd32vw55x/system_gd32vw55x.c:572
    RCU_CFG0 |= RCU_AHB_CKSYS_DIV1;
 8002b9c:	8087a603          	lw	a2,-2040(a5)
 8002ba0:	80c7a423          	sw	a2,-2040(a5)
D:/work/WIFI_GD32VW/Github_GD32VW55x/MSDK/plf/riscv/gd32vw55x/system_gd32vw55x.c:574
    RCU_CFG0 |= RCU_APB2_CKAHB_DIV1;
 8002ba4:	8087a603          	lw	a2,-2040(a5)
 8002ba8:	80c7a423          	sw	a2,-2040(a5)
D:/work/WIFI_GD32VW/Github_GD32VW55x/MSDK/plf/riscv/gd32vw55x/system_gd32vw55x.c:576
    RCU_CFG0 |= RCU_APB1_CKAHB_DIV2;
 8002bac:	8087a583          	lw	a1,-2040(a5)
 8002bb0:	28c59593          	bseti	a1,a1,0xc
 8002bb4:	80b7a423          	sw	a1,-2040(a5)
D:/work/WIFI_GD32VW/Github_GD32VW55x/MSDK/plf/riscv/gd32vw55x/system_gd32vw55x.c:578
    RCU_PLL |= RCU_PLLSRC_HXTAL;
 8002bb8:	8047a583          	lw	a1,-2044(a5)
 8002bbc:	28f59593          	bseti	a1,a1,0xf
 8002bc0:	80b7a223          	sw	a1,-2044(a5)
D:/work/WIFI_GD32VW/Github_GD32VW55x/MSDK/plf/riscv/gd32vw55x/system_gd32vw55x.c:581
    RCU_PLLDIGCFG1 = ((960 << 21) / (HXTAL_VALUE/1000000)) & 0x7FFFFFFF;
 8002bc4:	88a7aa23          	sw	a0,-1900(a5)
D:/work/WIFI_GD32VW/Github_GD32VW55x/MSDK/plf/riscv/gd32vw55x/system_gd32vw55x.c:583
    RCU_PLLDIGCFG0 |= ( RCU_PLLDIG_480M );
 8002bc8:	8847a603          	lw	a2,-1916(a5)
D:/work/WIFI_GD32VW/Github_GD32VW55x/MSDK/plf/riscv/gd32vw55x/system_gd32vw55x.c:588
    RCU_CFG1 |= (RCU_CFG1_RFPLLCALEN | RCU_CFG1_BGPU);
 8002bcc:	000845b7          	lui	a1,0x84
D:/work/WIFI_GD32VW/Github_GD32VW55x/MSDK/plf/riscv/gd32vw55x/system_gd32vw55x.c:583
    RCU_PLLDIGCFG0 |= ( RCU_PLLDIG_480M );
 8002bd0:	8e49                	or	a2,a2,a0
 8002bd2:	88c7a223          	sw	a2,-1916(a5)
D:/work/WIFI_GD32VW/Github_GD32VW55x/MSDK/plf/riscv/gd32vw55x/system_gd32vw55x.c:585
    RCU_PLLDIGCFG0 |= ( RCU_PLLDIG_SYS_DIV3 );
 8002bd6:	8847a603          	lw	a2,-1916(a5)
 8002bda:	29b61613          	bseti	a2,a2,0x1b
 8002bde:	88c7a223          	sw	a2,-1916(a5)
D:/work/WIFI_GD32VW/Github_GD32VW55x/MSDK/plf/riscv/gd32vw55x/system_gd32vw55x.c:588
    RCU_CFG1 |= (RCU_CFG1_RFPLLCALEN | RCU_CFG1_BGPU);
 8002be2:	88c7a603          	lw	a2,-1908(a5)
 8002be6:	8e4d                	or	a2,a2,a1
 8002be8:	88c7a623          	sw	a2,-1908(a5)
D:/work/WIFI_GD32VW/Github_GD32VW55x/MSDK/plf/riscv/gd32vw55x/system_gd32vw55x.c:589
    RCU_CTL |= (RCU_CTL_PLLDIGEN | RCU_CTL_PLLDIGPU);
 8002bec:	8007a603          	lw	a2,-2048(a5)
 8002bf0:	003005b7          	lui	a1,0x300
 8002bf4:	8e4d                	or	a2,a2,a1
 8002bf6:	80c7a023          	sw	a2,-2048(a5)
D:/work/WIFI_GD32VW/Github_GD32VW55x/MSDK/plf/riscv/gd32vw55x/system_gd32vw55x.c:591 (discriminator 1)
    while(0U == (RCU_CTL & RCU_CTL_PLLDIGSTB)){
 8002bfa:	80072783          	lw	a5,-2048(a4) # 40023800 <_sp+0x2001ef00>
 8002bfe:	8ff5                	and	a5,a5,a3
 8002c00:	dfed                	beqz	a5,8002bfa <system_clock_160m_40m_hxtal+0x94>
D:/work/WIFI_GD32VW/Github_GD32VW55x/MSDK/plf/riscv/gd32vw55x/system_gd32vw55x.c:594
    }
    /* select PLL as system clock */
    RCU_CFG0 &= ~RCU_CFG0_SCS;
 8002c02:	80872783          	lw	a5,-2040(a4)
D:/work/WIFI_GD32VW/Github_GD32VW55x/MSDK/plf/riscv/gd32vw55x/system_gd32vw55x.c:598
    RCU_CFG0 |= RCU_CKSYSSRC_PLLDIG;

    /* wait until PLL is selected as system clock */
    while(RCU_SCSS_PLLDIG != (RCU_CFG0 & RCU_CFG0_SCSS)){
 8002c06:	40024637          	lui	a2,0x40024
 8002c0a:	46a1                	li	a3,8
D:/work/WIFI_GD32VW/Github_GD32VW55x/MSDK/plf/riscv/gd32vw55x/system_gd32vw55x.c:594
    RCU_CFG0 &= ~RCU_CFG0_SCS;
 8002c0c:	9bf1                	andi	a5,a5,-4
 8002c0e:	80f72423          	sw	a5,-2040(a4)
D:/work/WIFI_GD32VW/Github_GD32VW55x/MSDK/plf/riscv/gd32vw55x/system_gd32vw55x.c:595
    RCU_CFG0 |= RCU_CKSYSSRC_PLLDIG;
 8002c12:	80872783          	lw	a5,-2040(a4)
 8002c16:	0027e793          	ori	a5,a5,2
 8002c1a:	80f72423          	sw	a5,-2040(a4)
D:/work/WIFI_GD32VW/Github_GD32VW55x/MSDK/plf/riscv/gd32vw55x/system_gd32vw55x.c:598 (discriminator 1)
    while(RCU_SCSS_PLLDIG != (RCU_CFG0 & RCU_CFG0_SCSS)){
 8002c1e:	80862783          	lw	a5,-2040(a2) # 40023808 <_sp+0x2001ef08>
 8002c22:	8bb1                	andi	a5,a5,12
 8002c24:	fed79de3          	bne	a5,a3,8002c1e <system_clock_160m_40m_hxtal+0xb8>
D:/work/WIFI_GD32VW/Github_GD32VW55x/MSDK/plf/riscv/gd32vw55x/system_gd32vw55x.c:600
    }
}
 8002c28:	8082                	ret

08002c2a <SystemInit>:
SystemInit():
D:/work/WIFI_GD32VW/Github_GD32VW55x/MSDK/plf/riscv/gd32vw55x/system_gd32vw55x.c:119
{
 8002c2a:	348002ef          	jal	t0,8002f72 <__riscv_save_0>
D:/work/WIFI_GD32VW/Github_GD32VW55x/MSDK/plf/riscv/gd32vw55x/system_gd32vw55x.c:122
    RCU_CTL |= RCU_CTL_IRC16MEN;
 8002c2e:	400247b7          	lui	a5,0x40024
 8002c32:	8007a703          	lw	a4,-2048(a5) # 40023800 <_sp+0x2001ef00>
D:/work/WIFI_GD32VW/Github_GD32VW55x/MSDK/plf/riscv/gd32vw55x/system_gd32vw55x.c:127
    RCU_CFG1 &= ~(RCU_CFG1_RFPLLCALEN | RCU_CFG1_RFPLLPU);
 8002c36:	76b1                	lui	a3,0xfffec
 8002c38:	16fd                	addi	a3,a3,-1
D:/work/WIFI_GD32VW/Github_GD32VW55x/MSDK/plf/riscv/gd32vw55x/system_gd32vw55x.c:122
    RCU_CTL |= RCU_CTL_IRC16MEN;
 8002c3a:	00176713          	ori	a4,a4,1
 8002c3e:	80e7a023          	sw	a4,-2048(a5)
D:/work/WIFI_GD32VW/Github_GD32VW55x/MSDK/plf/riscv/gd32vw55x/system_gd32vw55x.c:123
    RCU_CFG0 &= ~RCU_CFG0_SCS;
 8002c42:	8087a703          	lw	a4,-2040(a5)
 8002c46:	9b71                	andi	a4,a4,-4
 8002c48:	80e7a423          	sw	a4,-2040(a5)
D:/work/WIFI_GD32VW/Github_GD32VW55x/MSDK/plf/riscv/gd32vw55x/system_gd32vw55x.c:125
    RCU_CFG0 = 0x00000000U;
 8002c4c:	8007a423          	sw	zero,-2040(a5)
D:/work/WIFI_GD32VW/Github_GD32VW55x/MSDK/plf/riscv/gd32vw55x/system_gd32vw55x.c:127
    RCU_CFG1 &= ~(RCU_CFG1_RFPLLCALEN | RCU_CFG1_RFPLLPU);
 8002c50:	88c7a703          	lw	a4,-1908(a5)
 8002c54:	8f75                	and	a4,a4,a3
 8002c56:	88e7a623          	sw	a4,-1908(a5)
D:/work/WIFI_GD32VW/Github_GD32VW55x/MSDK/plf/riscv/gd32vw55x/system_gd32vw55x.c:130
    RCU_CTL &= ~(RCU_CTL_PLLDIGEN | RCU_CTL_PLLDIGPU | RCU_CTL_RFCKMEN | RCU_CTL_HXTALEN);
 8002c5a:	8007a703          	lw	a4,-2048(a5)
 8002c5e:	ff8f06b7          	lui	a3,0xff8f0
 8002c62:	16fd                	addi	a3,a3,-1
 8002c64:	8f75                	and	a4,a4,a3
 8002c66:	80e7a023          	sw	a4,-2048(a5)
D:/work/WIFI_GD32VW/Github_GD32VW55x/MSDK/plf/riscv/gd32vw55x/system_gd32vw55x.c:133
    RCU_PLL = 0x00000000U;
 8002c6a:	8007a223          	sw	zero,-2044(a5)
D:/work/WIFI_GD32VW/Github_GD32VW55x/MSDK/plf/riscv/gd32vw55x/system_gd32vw55x.c:134
    RCU_PLLDIGCFG0 = 0x00000000U;
 8002c6e:	8807a223          	sw	zero,-1916(a5)
D:/work/WIFI_GD32VW/Github_GD32VW55x/MSDK/plf/riscv/gd32vw55x/system_gd32vw55x.c:135
    RCU_PLLDIGCFG1 = 0x07800000U;
 8002c72:	07800737          	lui	a4,0x7800
 8002c76:	88e7aa23          	sw	a4,-1900(a5)
D:/work/WIFI_GD32VW/Github_GD32VW55x/MSDK/plf/riscv/gd32vw55x/system_gd32vw55x.c:138
    RCU_INT = 0x00000000U;
 8002c7a:	8007a623          	sw	zero,-2036(a5)
system_clock_config():
D:/work/WIFI_GD32VW/Github_GD32VW55x/MSDK/plf/riscv/gd32vw55x/system_gd32vw55x.c:170
    system_clock_160m_40m_hxtal();
 8002c7e:	35e5                	jal	8002b66 <system_clock_160m_40m_hxtal>
SysTimer_GetControlValue():
D:\work\WIFI_GD32VW\Github_GD32VW55x\MBL\project\eclipse\Debug/../../../../MSDK/plf/riscv/NMSIS/Core/Include/core_feature_timer.h:237
 * \remarks
 * - \ref SysTimer_SetControlValue
 */
__STATIC_FORCEINLINE uint32_t SysTimer_GetControlValue(void)
{
    return (SysTimer->MTIMECTL & SysTimer_MTIMECTL_Msk);
 8002c80:	d1001737          	lui	a4,0xd1001
 8002c84:	ff872783          	lw	a5,-8(a4) # d1000ff8 <_sp+0xb0ffc6f8>
SystemInit():
D:/work/WIFI_GD32VW/Github_GD32VW55x/MSDK/plf/riscv/gd32vw55x/system_gd32vw55x.c:145
    SysTimer_SetControlValue(SysTimer_GetControlValue() | SysTimer_MTIMECTL_CLKSRC_Msk);
 8002c88:	0047e793          	ori	a5,a5,4
SysTimer_SetControlValue():
D:\work\WIFI_GD32VW\Github_GD32VW55x\MBL\project\eclipse\Debug/../../../../MSDK/plf/riscv/NMSIS/Core/Include/core_feature_timer.h:224
    SysTimer->MTIMECTL = (mctl & SysTimer_MTIMECTL_Msk);
 8002c8c:	fef72c23          	sw	a5,-8(a4)
MInvalICache():
D:\work\WIFI_GD32VW\Github_GD32VW55x\MBL\project\eclipse\Debug/../../../../MSDK/plf/riscv/NMSIS/Core/Include/core_feature_cache.h:613
 * This function must be executed in M-Mode only.
 * \param [in]    addr    start address to be invalidated
 */
__STATIC_FORCEINLINE void MInvalICache(void)
{
    __RV_CSR_WRITE(CSR_CCM_MCOMMAND, CCM_IC_INVAL_ALL);
 8002c90:	47b5                	li	a5,13
 8002c92:	7cc79073          	csrw	ccm_mcommand,a5
SystemInit():
D:/work/WIFI_GD32VW/Github_GD32VW55x/MSDK/plf/riscv/gd32vw55x/system_gd32vw55x.c:148
}
 8002c96:	a601                	j	8002f96 <__riscv_restore_0>

08002c98 <_write>:
_write():
D:/work/WIFI_GD32VW/Github_GD32VW55x/MBL/mainboot/mbl.c:62
{
 8002c98:	2da002ef          	jal	t0,8002f72 <__riscv_save_0>
D:/work/WIFI_GD32VW/Github_GD32VW55x/MBL/mainboot/mbl.c:67
    while (i != len) {
 8002c9c:	c229                	beqz	a2,8002cde <_write+0x46>
 8002c9e:	84b2                	mv	s1,a2
 8002ca0:	892e                	mv	s2,a1
D:/work/WIFI_GD32VW/Github_GD32VW55x/MBL/mainboot/mbl.c:64
    int32_t i = 0;
 8002ca2:	4401                	li	s0,0
D:/work/WIFI_GD32VW/Github_GD32VW55x/MBL/mainboot/mbl.c:68 (discriminator 1)
        while(RESET == usart_flag_get(LOG_UART, USART_FLAG_TBE));
 8002ca4:	70700593          	li	a1,1799
 8002ca8:	40011537          	lui	a0,0x40011
 8002cac:	c0aff0ef          	jal	ra,80020b6 <usart_flag_get>
 8002cb0:	d975                	beqz	a0,8002ca4 <_write+0xc>
D:/work/WIFI_GD32VW/Github_GD32VW55x/MBL/mainboot/mbl.c:69
        usart_data_transmit(LOG_UART, *str);
 8002cb2:	008907b3          	add	a5,s2,s0
 8002cb6:	40011537          	lui	a0,0x40011
D:/work/WIFI_GD32VW/Github_GD32VW55x/MBL/mainboot/mbl.c:71
        i++;
 8002cba:	0405                	addi	s0,s0,1
D:/work/WIFI_GD32VW/Github_GD32VW55x/MBL/mainboot/mbl.c:69
        usart_data_transmit(LOG_UART, *str);
 8002cbc:	00078583          	lb	a1,0(a5)
 8002cc0:	0805c5b3          	zext.h	a1,a1
 8002cc4:	beaff0ef          	jal	ra,80020ae <usart_data_transmit>
D:/work/WIFI_GD32VW/Github_GD32VW55x/MBL/mainboot/mbl.c:67
    while (i != len) {
 8002cc8:	fc849ee3          	bne	s1,s0,8002ca4 <_write+0xc>
D:/work/WIFI_GD32VW/Github_GD32VW55x/MBL/mainboot/mbl.c:74 (discriminator 1)
    while(RESET == usart_flag_get(LOG_UART, USART_FLAG_TC));
 8002ccc:	70600593          	li	a1,1798
 8002cd0:	40011537          	lui	a0,0x40011
 8002cd4:	be2ff0ef          	jal	ra,80020b6 <usart_flag_get>
 8002cd8:	d975                	beqz	a0,8002ccc <_write+0x34>
D:/work/WIFI_GD32VW/Github_GD32VW55x/MBL/mainboot/mbl.c:77
}
 8002cda:	8522                	mv	a0,s0
 8002cdc:	ac6d                	j	8002f96 <__riscv_restore_0>
D:/work/WIFI_GD32VW/Github_GD32VW55x/MBL/mainboot/mbl.c:74
    while(RESET == usart_flag_get(LOG_UART, USART_FLAG_TC));
 8002cde:	70600593          	li	a1,1798
 8002ce2:	40011537          	lui	a0,0x40011
D:/work/WIFI_GD32VW/Github_GD32VW55x/MBL/mainboot/mbl.c:64
    int32_t i = 0;
 8002ce6:	4401                	li	s0,0
D:/work/WIFI_GD32VW/Github_GD32VW55x/MBL/mainboot/mbl.c:74
    while(RESET == usart_flag_get(LOG_UART, USART_FLAG_TC));
 8002ce8:	bceff0ef          	jal	ra,80020b6 <usart_flag_get>
 8002cec:	d165                	beqz	a0,8002ccc <_write+0x34>
 8002cee:	b7f5                	j	8002cda <_write+0x42>

08002cf0 <log_uart_idle_wait>:
log_uart_idle_wait():
D:/work/WIFI_GD32VW/Github_GD32VW55x/MBL/mainboot/mbl.c:139
{
 8002cf0:	282002ef          	jal	t0,8002f72 <__riscv_save_0>
D:/work/WIFI_GD32VW/Github_GD32VW55x/MBL/mainboot/mbl.c:140 (discriminator 1)
    while (RESET == usart_flag_get(LOG_UART, USART_FLAG_TC));
 8002cf4:	70600593          	li	a1,1798
 8002cf8:	40011537          	lui	a0,0x40011
 8002cfc:	bbaff0ef          	jal	ra,80020b6 <usart_flag_get>
 8002d00:	d975                	beqz	a0,8002cf4 <log_uart_idle_wait+0x4>
D:/work/WIFI_GD32VW/Github_GD32VW55x/MBL/mainboot/mbl.c:141
}
 8002d02:	ac51                	j	8002f96 <__riscv_restore_0>

08002d04 <flash_offset_mapping>:
flash_offset_mapping():
D:/work/WIFI_GD32VW/Github_GD32VW55x/MBL/mainboot/mbl.c:150
{
 8002d04:	26e002ef          	jal	t0,8002f72 <__riscv_save_0>
D:/work/WIFI_GD32VW/Github_GD32VW55x/MBL/mainboot/mbl.c:151
    fmc_unlock();
 8002d08:	f61fe0ef          	jal	ra,8001c68 <fmc_unlock>
D:/work/WIFI_GD32VW/Github_GD32VW55x/MBL/mainboot/mbl.c:152
    ob_unlock();
 8002d0c:	f8dfe0ef          	jal	ra,8001c98 <ob_unlock>
D:/work/WIFI_GD32VW/Github_GD32VW55x/MBL/mainboot/mbl.c:153
    fmc_offset_region_config(RE_IMG_0_OFFSET >> 12, (RE_IMG_1_OFFSET >> 12) - 1);
 8002d10:	1e900593          	li	a1,489
 8002d14:	4529                	li	a0,10
 8002d16:	fb3fe0ef          	jal	ra,8001cc8 <fmc_offset_region_config>
D:/work/WIFI_GD32VW/Github_GD32VW55x/MBL/mainboot/mbl.c:154
    fmc_offset_value_config((RE_IMG_1_OFFSET - RE_IMG_0_OFFSET) >> 12);
 8002d1a:	1e000513          	li	a0,480
 8002d1e:	fcbfe0ef          	jal	ra,8001ce8 <fmc_offset_value_config>
D:/work/WIFI_GD32VW/Github_GD32VW55x/MBL/mainboot/mbl.c:155
    ob_lock();
 8002d22:	f99fe0ef          	jal	ra,8001cba <ob_lock>
D:/work/WIFI_GD32VW/Github_GD32VW55x/MBL/mainboot/mbl.c:156
    fmc_lock();
 8002d26:	f65fe0ef          	jal	ra,8001c8a <fmc_lock>
D:/work/WIFI_GD32VW/Github_GD32VW55x/MBL/mainboot/mbl.c:157
}
 8002d2a:	a4b5                	j	8002f96 <__riscv_restore_0>

08002d2c <reloc_iv>:
reloc_iv():
D:/work/WIFI_GD32VW/Github_GD32VW55x/MBL/mainboot/mbl.c:182
    __asm volatile("csrw mtvec, %0":: "r"(address + 1));
 8002d2c:	0511                	addi	a0,a0,4
 8002d2e:	30551073          	csrw	mtvec,a0
D:/work/WIFI_GD32VW/Github_GD32VW55x/MBL/mainboot/mbl.c:183
}
 8002d32:	8082                	ret

08002d34 <boot_image_find>:
boot_image_find():
D:/work/WIFI_GD32VW/Github_GD32VW55x/MBL/mainboot/mbl_image_validate.c:52
      \arg        -4: image1 has downloaded but image0 has not downloaded
      \arg        -5: other fail
      \arg        -6: read image address from system setting fail
*/
int boot_image_find(OUT uint32_t *idx, OUT uint32_t *image_offset)
{
 8002d34:	224002ef          	jal	t0,8002f58 <__riscv_save_4>
 8002d38:	1141                	addi	sp,sp,-16
D:/work/WIFI_GD32VW/Github_GD32VW55x/MBL/mainboot/mbl_image_validate.c:53
    uint8_t img0_stat = 0, img1_stat = 0;
 8002d3a:	00010723          	sb	zero,14(sp)
 8002d3e:	000107a3          	sb	zero,15(sp)
D:/work/WIFI_GD32VW/Github_GD32VW55x/MBL/mainboot/mbl_image_validate.c:61
#endif
    uint8_t img0_found = 0, img1_found = 0;
    int boot_idx = -1;
    int ret, result = 0;

    if (NULL == image_offset) {
 8002d42:	0e058d63          	beqz	a1,8002e3c <boot_image_find+0x108>
D:/work/WIFI_GD32VW/Github_GD32VW55x/MBL/mainboot/mbl_image_validate.c:66
        result = -1;
        goto Failed;
    }

    ret = rom_sys_status_get(SYS_IMAGE0_STATUS, LEN_SYS_IMAGE_STATUS, &img0_stat);
 8002d46:	20000937          	lui	s2,0x20000
 8002d4a:	36092783          	lw	a5,864(s2) # 20000360 <p_rom_api>
 8002d4e:	84ae                	mv	s1,a1
 8002d50:	8a2a                	mv	s4,a0
 8002d52:	5bdc                	lw	a5,52(a5)
 8002d54:	00e10613          	addi	a2,sp,14
 8002d58:	4585                	li	a1,1
 8002d5a:	450d                	li	a0,3
 8002d5c:	9782                	jalr	a5
D:/work/WIFI_GD32VW/Github_GD32VW55x/MBL/mainboot/mbl_image_validate.c:67
    if (ret <= SYS_STATUS_FOUND_ERR) {
 8002d5e:	59fd                	li	s3,-1
D:/work/WIFI_GD32VW/Github_GD32VW55x/MBL/mainboot/mbl_image_validate.c:66
    ret = rom_sys_status_get(SYS_IMAGE0_STATUS, LEN_SYS_IMAGE_STATUS, &img0_stat);
 8002d60:	842a                	mv	s0,a0
D:/work/WIFI_GD32VW/Github_GD32VW55x/MBL/mainboot/mbl_image_validate.c:67
    if (ret <= SYS_STATUS_FOUND_ERR) {
 8002d62:	0d354963          	blt	a0,s3,8002e34 <boot_image_find+0x100>
D:/work/WIFI_GD32VW/Github_GD32VW55x/MBL/mainboot/mbl_image_validate.c:75
    } else if (ret == SYS_STATUS_FOUND_OK) {
        img0_found = 1;
    } else {  // SYS_STATUS_NOT_FOUND
        img0_found = 0;
    }
    ret = rom_sys_status_get(SYS_IMAGE1_STATUS, LEN_SYS_IMAGE_STATUS, &img1_stat);
 8002d66:	36092783          	lw	a5,864(s2)
 8002d6a:	00f10613          	addi	a2,sp,15
 8002d6e:	4585                	li	a1,1
 8002d70:	5bdc                	lw	a5,52(a5)
 8002d72:	4511                	li	a0,4
 8002d74:	9782                	jalr	a5
D:/work/WIFI_GD32VW/Github_GD32VW55x/MBL/mainboot/mbl_image_validate.c:76
    if (ret <= SYS_STATUS_FOUND_ERR) {
 8002d76:	0d354163          	blt	a0,s3,8002e38 <boot_image_find+0x104>
D:/work/WIFI_GD32VW/Github_GD32VW55x/MBL/mainboot/mbl_image_validate.c:79
        result = -3;
        goto Failed;
    } else if (ret == SYS_STATUS_FOUND_OK) {
 8002d7a:	e90d                	bnez	a0,8002dac <boot_image_find+0x78>
D:/work/WIFI_GD32VW/Github_GD32VW55x/MBL/mainboot/mbl_image_validate.c:87
        img1_found = 0;
    }

    /* Image0 never downloaded, Image1 should not be downloaded too. */
    if (!img0_found && img1_found) {
        result = -4;
 8002d7c:	5571                	li	a0,-4
D:/work/WIFI_GD32VW/Github_GD32VW55x/MBL/mainboot/mbl_image_validate.c:86
    if (!img0_found && img1_found) {
 8002d7e:	ec25                	bnez	s0,8002df6 <boot_image_find+0xc2>
D:/work/WIFI_GD32VW/Github_GD32VW55x/MBL/mainboot/mbl_image_validate.c:98
        rom_sys_set_img_flag(IMAGE_0, IMG_FLAG_NEWER_MASK, IMG_FLAG_NEWER);
        boot_idx = 0;
        goto ImgSelected;
    }

    if (img0_found && ((img0_stat & IMG_FLAG_NEWER_MASK) == IMG_FLAG_NEWER)) {
 8002d80:	00e14783          	lbu	a5,14(sp)
 8002d84:	0017f713          	andi	a4,a5,1
 8002d88:	eb2d                	bnez	a4,8002dfa <boot_image_find+0xc6>
D:/work/WIFI_GD32VW/Github_GD32VW55x/MBL/mainboot/mbl_image_validate.c:106
            boot_idx = 0;
            goto ImgSelected;
        }
    }

    if (img1_found && ((img1_stat & IMG_FLAG_NEWER_MASK) == IMG_FLAG_NEWER)) {
 8002d8a:	00f14783          	lbu	a5,15(sp)
 8002d8e:	0017f713          	andi	a4,a5,1
 8002d92:	c741                	beqz	a4,8002e1a <boot_image_find+0xe6>
D:/work/WIFI_GD32VW/Github_GD32VW55x/MBL/mainboot/mbl_image_validate.c:107
        if (((img1_stat & IMG_FLAG_VERIFY_MASK) != IMG_FLAG_VERIFY_FAIL)
 8002d94:	0067f713          	andi	a4,a5,6
 8002d98:	4691                	li	a3,4
 8002d9a:	08d70063          	beq	a4,a3,8002e1a <boot_image_find+0xe6>
D:/work/WIFI_GD32VW/Github_GD32VW55x/MBL/mainboot/mbl_image_validate.c:108
            && ((img1_stat & IMG_FLAG_IA_MASK) != IMG_FLAG_IA_FAIL)) {
 8002d9e:	0187f713          	andi	a4,a5,24
 8002da2:	46c1                	li	a3,16
 8002da4:	06d70b63          	beq	a4,a3,8002e1a <boot_image_find+0xe6>
 8002da8:	4785                	li	a5,1
 8002daa:	a089                	j	8002dec <boot_image_find+0xb8>
D:/work/WIFI_GD32VW/Github_GD32VW55x/MBL/mainboot/mbl_image_validate.c:91
    if (!img0_found && !img1_found) {
 8002dac:	e805                	bnez	s0,8002ddc <boot_image_find+0xa8>
D:/work/WIFI_GD32VW/Github_GD32VW55x/MBL/mainboot/mbl_image_validate.c:98 (discriminator 1)
    if (img0_found && ((img0_stat & IMG_FLAG_NEWER_MASK) == IMG_FLAG_NEWER)) {
 8002dae:	00e14783          	lbu	a5,14(sp)
 8002db2:	0017f713          	andi	a4,a5,1
 8002db6:	cb11                	beqz	a4,8002dca <boot_image_find+0x96>
D:/work/WIFI_GD32VW/Github_GD32VW55x/MBL/mainboot/mbl_image_validate.c:99
        if (((img0_stat & IMG_FLAG_VERIFY_MASK) != IMG_FLAG_VERIFY_FAIL)
 8002db8:	0067f713          	andi	a4,a5,6
 8002dbc:	4691                	li	a3,4
 8002dbe:	00d70663          	beq	a4,a3,8002dca <boot_image_find+0x96>
D:/work/WIFI_GD32VW/Github_GD32VW55x/MBL/mainboot/mbl_image_validate.c:100
            && ((img0_stat & IMG_FLAG_IA_MASK) != IMG_FLAG_IA_FAIL)) {
 8002dc2:	8be1                	andi	a5,a5,24
 8002dc4:	4741                	li	a4,16
 8002dc6:	06e79563          	bne	a5,a4,8002e30 <boot_image_find+0xfc>
D:/work/WIFI_GD32VW/Github_GD32VW55x/MBL/mainboot/mbl_image_validate.c:115
            goto ImgSelected;
        }
    }

    if (img0_found && ((img0_stat & IMG_FLAG_VERIFY_MASK) == IMG_FLAG_VERIFY_OK)
        && ((img0_stat & IMG_FLAG_IA_MASK) == IMG_FLAG_IA_OK)) {
 8002dca:	00e14783          	lbu	a5,14(sp)
 8002dce:	4729                	li	a4,10
 8002dd0:	8bf9                	andi	a5,a5,30
 8002dd2:	04e78f63          	beq	a5,a4,8002e30 <boot_image_find+0xfc>
D:/work/WIFI_GD32VW/Github_GD32VW55x/MBL/mainboot/mbl_image_validate.c:127
        boot_idx = 1;
        goto ImgSelected;
    }

    if (boot_idx == -1) {
        result = -5;
 8002dd6:	556d                	li	a0,-5
D:/work/WIFI_GD32VW/Github_GD32VW55x/MBL/mainboot/mbl_image_validate.c:150

    return 0;

Failed:
    return result;
}
 8002dd8:	0141                	addi	sp,sp,16
 8002dda:	aa4d                	j	8002f8c <__riscv_restore_4>
D:/work/WIFI_GD32VW/Github_GD32VW55x/MBL/mainboot/mbl_image_validate.c:93
        rom_sys_set_img_flag(IMAGE_0, IMG_FLAG_NEWER_MASK, IMG_FLAG_NEWER);
 8002ddc:	36092783          	lw	a5,864(s2)
 8002de0:	4605                	li	a2,1
 8002de2:	4585                	li	a1,1
 8002de4:	43bc                	lw	a5,64(a5)
 8002de6:	4501                	li	a0,0
 8002de8:	9782                	jalr	a5
D:/work/WIFI_GD32VW/Github_GD32VW55x/MBL/mainboot/mbl_image_validate.c:95
        goto ImgSelected;
 8002dea:	4781                	li	a5,0
D:/work/WIFI_GD32VW/Github_GD32VW55x/MBL/mainboot/mbl_image_validate.c:142
    *idx = boot_idx;
 8002dec:	00fa2023          	sw	a5,0(s4) # 30203000 <_sp+0x101fe700>
D:/work/WIFI_GD32VW/Github_GD32VW55x/MBL/mainboot/mbl_image_validate.c:143
    *image_offset = RE_IMG_0_OFFSET + IMG_OVERHEAD_LEN;
 8002df0:	67a9                	lui	a5,0xa
 8002df2:	c09c                	sw	a5,0(s1)
D:/work/WIFI_GD32VW/Github_GD32VW55x/MBL/mainboot/mbl_image_validate.c:146
    return 0;
 8002df4:	4501                	li	a0,0
D:/work/WIFI_GD32VW/Github_GD32VW55x/MBL/mainboot/mbl_image_validate.c:150
}
 8002df6:	0141                	addi	sp,sp,16
 8002df8:	aa51                	j	8002f8c <__riscv_restore_4>
D:/work/WIFI_GD32VW/Github_GD32VW55x/MBL/mainboot/mbl_image_validate.c:99
        if (((img0_stat & IMG_FLAG_VERIFY_MASK) != IMG_FLAG_VERIFY_FAIL)
 8002dfa:	0067f713          	andi	a4,a5,6
 8002dfe:	4691                	li	a3,4
 8002e00:	f8d705e3          	beq	a4,a3,8002d8a <boot_image_find+0x56>
D:/work/WIFI_GD32VW/Github_GD32VW55x/MBL/mainboot/mbl_image_validate.c:100
            && ((img0_stat & IMG_FLAG_IA_MASK) != IMG_FLAG_IA_FAIL)) {
 8002e04:	0187f713          	andi	a4,a5,24
 8002e08:	46c1                	li	a3,16
 8002e0a:	4781                	li	a5,0
 8002e0c:	fed710e3          	bne	a4,a3,8002dec <boot_image_find+0xb8>
D:/work/WIFI_GD32VW/Github_GD32VW55x/MBL/mainboot/mbl_image_validate.c:106
    if (img1_found && ((img1_stat & IMG_FLAG_NEWER_MASK) == IMG_FLAG_NEWER)) {
 8002e10:	00f14783          	lbu	a5,15(sp)
 8002e14:	0017f713          	andi	a4,a5,1
 8002e18:	ff35                	bnez	a4,8002d94 <boot_image_find+0x60>
D:/work/WIFI_GD32VW/Github_GD32VW55x/MBL/mainboot/mbl_image_validate.c:115
        && ((img0_stat & IMG_FLAG_IA_MASK) == IMG_FLAG_IA_OK)) {
 8002e1a:	00e14683          	lbu	a3,14(sp)
 8002e1e:	4729                	li	a4,10
 8002e20:	8af9                	andi	a3,a3,30
 8002e22:	00e68763          	beq	a3,a4,8002e30 <boot_image_find+0xfc>
D:/work/WIFI_GD32VW/Github_GD32VW55x/MBL/mainboot/mbl_image_validate.c:121
        && ((img1_stat & IMG_FLAG_IA_MASK) == IMG_FLAG_IA_OK)) {
 8002e26:	8bf9                	andi	a5,a5,30
 8002e28:	fae797e3          	bne	a5,a4,8002dd6 <boot_image_find+0xa2>
 8002e2c:	4785                	li	a5,1
 8002e2e:	bf7d                	j	8002dec <boot_image_find+0xb8>
D:/work/WIFI_GD32VW/Github_GD32VW55x/MBL/mainboot/mbl_image_validate.c:100
            && ((img0_stat & IMG_FLAG_IA_MASK) != IMG_FLAG_IA_FAIL)) {
 8002e30:	4781                	li	a5,0
 8002e32:	bf6d                	j	8002dec <boot_image_find+0xb8>
D:/work/WIFI_GD32VW/Github_GD32VW55x/MBL/mainboot/mbl_image_validate.c:68
        result = -2;
 8002e34:	5579                	li	a0,-2
 8002e36:	b7c1                	j	8002df6 <boot_image_find+0xc2>
D:/work/WIFI_GD32VW/Github_GD32VW55x/MBL/mainboot/mbl_image_validate.c:77
        result = -3;
 8002e38:	5575                	li	a0,-3
 8002e3a:	bf75                	j	8002df6 <boot_image_find+0xc2>
D:/work/WIFI_GD32VW/Github_GD32VW55x/MBL/mainboot/mbl_image_validate.c:62
        result = -1;
 8002e3c:	557d                	li	a0,-1
 8002e3e:	bf65                	j	8002df6 <boot_image_find+0xc2>

08002e40 <image_x_validate>:
image_x_validate():
D:/work/WIFI_GD32VW/Github_GD32VW55x/MBL/mainboot/mbl_image_validate.c:162
    \retval     result of validate nspe
*/
int image_x_validate(IN uint32_t img_offset,
                     IN uint8_t *pkhash,
                     IN uint8_t boot_opt)
{
 8002e40:	118002ef          	jal	t0,8002f58 <__riscv_save_4>
D:/work/WIFI_GD32VW/Github_GD32VW55x/MBL/mainboot/mbl_image_validate.c:166
    struct sw_info_t sw_info;
    int ret, result = 0;

    rom_trace_ex(ROM_DBG, "image_x_validate: image offset is 0x%x.\r\n", img_offset);
 8002e44:	20000937          	lui	s2,0x20000
 8002e48:	36092783          	lw	a5,864(s2) # 20000360 <p_rom_api>
D:/work/WIFI_GD32VW/Github_GD32VW55x/MBL/mainboot/mbl_image_validate.c:162
{
 8002e4c:	89ae                	mv	s3,a1
D:/work/WIFI_GD32VW/Github_GD32VW55x/MBL/mainboot/mbl_image_validate.c:166
    rom_trace_ex(ROM_DBG, "image_x_validate: image offset is 0x%x.\r\n", img_offset);
 8002e4e:	080015b7          	lui	a1,0x8001
 8002e52:	43d8                	lw	a4,4(a5)
D:/work/WIFI_GD32VW/Github_GD32VW55x/MBL/mainboot/mbl_image_validate.c:162
{
 8002e54:	8432                	mv	s0,a2
 8002e56:	7159                	addi	sp,sp,-112
 8002e58:	84aa                	mv	s1,a0
D:/work/WIFI_GD32VW/Github_GD32VW55x/MBL/mainboot/mbl_image_validate.c:166
    rom_trace_ex(ROM_DBG, "image_x_validate: image offset is 0x%x.\r\n", img_offset);
 8002e5a:	862a                	mv	a2,a0
 8002e5c:	50c58593          	addi	a1,a1,1292 # 800150c <_sicode+0x240>
 8002e60:	4515                	li	a0,5
 8002e62:	9702                	jalr	a4
D:/work/WIFI_GD32VW/Github_GD32VW55x/MBL/mainboot/mbl_image_validate.c:168

    if (boot_opt == IBL_VERIFY_NONE)
 8002e64:	c429                	beqz	s0,8002eae <image_x_validate+0x6e>
D:/work/WIFI_GD32VW/Github_GD32VW55x/MBL/mainboot/mbl_image_validate.c:172
        return 0;

    /* Validate image cert and signature */
    if (boot_opt == IBL_VERIFY_CERT_IMG) {
 8002e66:	470d                	li	a4,3
D:/work/WIFI_GD32VW/Github_GD32VW55x/MBL/mainboot/mbl_image_validate.c:173
        ret = rom_cert_img_validate(img_offset, IMG_TYPE_IMG, pkhash, &sw_info);
 8002e68:	36092783          	lw	a5,864(s2)
D:/work/WIFI_GD32VW/Github_GD32VW55x/MBL/mainboot/mbl_image_validate.c:172
    if (boot_opt == IBL_VERIFY_CERT_IMG) {
 8002e6c:	04e40563          	beq	s0,a4,8002eb6 <image_x_validate+0x76>
D:/work/WIFI_GD32VW/Github_GD32VW55x/MBL/mainboot/mbl_image_validate.c:181
            result = -3;
            goto Failed;
        } else {
            rom_trace_ex(ROM_ALWAYS, "MBL: Image cert and sigature verified OK.\r\n");
        }
    } else if (boot_opt == IBL_VERIFY_IMG_ONLY) {
 8002e70:	4705                	li	a4,1
 8002e72:	06e40563          	beq	s0,a4,8002edc <image_x_validate+0x9c>
D:/work/WIFI_GD32VW/Github_GD32VW55x/MBL/mainboot/mbl_image_validate.c:193
            rom_trace_ex(ROM_ALWAYS, "MBL: Image verified OK.\r\n");
        }
    }

    /* Update Main Image Version Counter */
    ret = rom_sys_set_fw_ver(IMG_TYPE_IMG, sw_info.version);
 8002e76:	47fc                	lw	a5,76(a5)
 8002e78:	45b2                	lw	a1,12(sp)
 8002e7a:	4509                	li	a0,2
 8002e7c:	9782                	jalr	a5
 8002e7e:	842a                	mv	s0,a0
D:/work/WIFI_GD32VW/Github_GD32VW55x/MBL/mainboot/mbl_image_validate.c:194
    if (ret < 0) {
 8002e80:	08054163          	bltz	a0,8002f02 <image_x_validate+0xc2>
D:/work/WIFI_GD32VW/Github_GD32VW55x/MBL/mainboot/mbl_image_validate.c:200
        rom_trace_ex(ROM_ERR, "Update Main Image version counter failed(%d).\r\n", ret);
        result = -5;
        goto Failed;
    } else if (ret == 1){
        /* The new image version is equal to the local counter. Do nothing. */
    } else if (ret == 0){
 8002e84:	e50d                	bnez	a0,8002eae <image_x_validate+0x6e>
D:/work/WIFI_GD32VW/Github_GD32VW55x/MBL/mainboot/mbl_image_validate.c:201
        rom_trace_ex(ROM_ALWAYS, "MBL: Current image version is %d.%d.%d\r\n",
 8002e86:	36092783          	lw	a5,864(s2)
D:/work/WIFI_GD32VW/Github_GD32VW55x/MBL/mainboot/mbl_image_validate.c:202
                    (sw_info.version >> 24),
 8002e8a:	4732                	lw	a4,12(sp)
D:/work/WIFI_GD32VW/Github_GD32VW55x/MBL/mainboot/mbl_image_validate.c:201
        rom_trace_ex(ROM_ALWAYS, "MBL: Current image version is %d.%d.%d\r\n",
 8002e8c:	080015b7          	lui	a1,0x8001
 8002e90:	43dc                	lw	a5,4(a5)
D:/work/WIFI_GD32VW/Github_GD32VW55x/MBL/mainboot/mbl_image_validate.c:203
                    ((sw_info.version << 8) >> 24),
 8002e92:	00871693          	slli	a3,a4,0x8
D:/work/WIFI_GD32VW/Github_GD32VW55x/MBL/mainboot/mbl_image_validate.c:201
        rom_trace_ex(ROM_ALWAYS, "MBL: Current image version is %d.%d.%d\r\n",
 8002e96:	01875613          	srli	a2,a4,0x18
 8002e9a:	82e1                	srli	a3,a3,0x18
 8002e9c:	61c58593          	addi	a1,a1,1564 # 800161c <_sicode+0x350>
 8002ea0:	4505                	li	a0,1
 8002ea2:	08074733          	zext.h	a4,a4
 8002ea6:	9782                	jalr	a5
D:/work/WIFI_GD32VW/Github_GD32VW55x/MBL/mainboot/mbl_image_validate.c:211

    return 0;

Failed:
    return result;
}
 8002ea8:	8522                	mv	a0,s0
 8002eaa:	6165                	addi	sp,sp,112
 8002eac:	a0c5                	j	8002f8c <__riscv_restore_4>
D:/work/WIFI_GD32VW/Github_GD32VW55x/MBL/mainboot/mbl_image_validate.c:169
        return 0;
 8002eae:	4401                	li	s0,0
D:/work/WIFI_GD32VW/Github_GD32VW55x/MBL/mainboot/mbl_image_validate.c:211
}
 8002eb0:	8522                	mv	a0,s0
 8002eb2:	6165                	addi	sp,sp,112
 8002eb4:	a8e1                	j	8002f8c <__riscv_restore_4>
D:/work/WIFI_GD32VW/Github_GD32VW55x/MBL/mainboot/mbl_image_validate.c:173
        ret = rom_cert_img_validate(img_offset, IMG_TYPE_IMG, pkhash, &sw_info);
 8002eb6:	579c                	lw	a5,40(a5)
 8002eb8:	0034                	addi	a3,sp,8
 8002eba:	864e                	mv	a2,s3
 8002ebc:	4589                	li	a1,2
 8002ebe:	8526                	mv	a0,s1
 8002ec0:	9782                	jalr	a5
D:/work/WIFI_GD32VW/Github_GD32VW55x/MBL/mainboot/mbl_image_validate.c:175
            rom_trace_ex(ROM_ERR, "image_x_validate: cert or image verified failed(%d). \r\n", ret);
 8002ec2:	36092783          	lw	a5,864(s2)
D:/work/WIFI_GD32VW/Github_GD32VW55x/MBL/mainboot/mbl_image_validate.c:174
        if (ret != IMG_OK) {
 8002ec6:	e931                	bnez	a0,8002f1a <image_x_validate+0xda>
D:/work/WIFI_GD32VW/Github_GD32VW55x/MBL/mainboot/mbl_image_validate.c:179
            rom_trace_ex(ROM_ALWAYS, "MBL: Image cert and sigature verified OK.\r\n");
 8002ec8:	43dc                	lw	a5,4(a5)
 8002eca:	080015b7          	lui	a1,0x8001
 8002ece:	57058593          	addi	a1,a1,1392 # 8001570 <_sicode+0x2a4>
 8002ed2:	4505                	li	a0,1
 8002ed4:	9782                	jalr	a5
D:/work/WIFI_GD32VW/Github_GD32VW55x/MBL/mainboot/mbl_image_validate.c:193
    ret = rom_sys_set_fw_ver(IMG_TYPE_IMG, sw_info.version);
 8002ed6:	36092783          	lw	a5,864(s2)
 8002eda:	bf71                	j	8002e76 <image_x_validate+0x36>
D:/work/WIFI_GD32VW/Github_GD32VW55x/MBL/mainboot/mbl_image_validate.c:182
        ret = rom_img_validate(img_offset, IMG_TYPE_IMG, pkhash, &sw_info);
 8002edc:	53dc                	lw	a5,36(a5)
 8002ede:	0034                	addi	a3,sp,8
 8002ee0:	864e                	mv	a2,s3
 8002ee2:	4589                	li	a1,2
 8002ee4:	8526                	mv	a0,s1
 8002ee6:	9782                	jalr	a5
D:/work/WIFI_GD32VW/Github_GD32VW55x/MBL/mainboot/mbl_image_validate.c:184
            rom_trace_ex(ROM_ERR, "image_x_validate: Image verified failed (%d). \r\n", ret);
 8002ee8:	36092783          	lw	a5,864(s2)
D:/work/WIFI_GD32VW/Github_GD32VW55x/MBL/mainboot/mbl_image_validate.c:183
        if (ret != IMG_OK) {
 8002eec:	e129                	bnez	a0,8002f2e <image_x_validate+0xee>
D:/work/WIFI_GD32VW/Github_GD32VW55x/MBL/mainboot/mbl_image_validate.c:188
            rom_trace_ex(ROM_ALWAYS, "MBL: Image verified OK.\r\n");
 8002eee:	43dc                	lw	a5,4(a5)
 8002ef0:	080015b7          	lui	a1,0x8001
 8002ef4:	5d058593          	addi	a1,a1,1488 # 80015d0 <_sicode+0x304>
 8002ef8:	4505                	li	a0,1
 8002efa:	9782                	jalr	a5
D:/work/WIFI_GD32VW/Github_GD32VW55x/MBL/mainboot/mbl_image_validate.c:193
    ret = rom_sys_set_fw_ver(IMG_TYPE_IMG, sw_info.version);
 8002efc:	36092783          	lw	a5,864(s2)
 8002f00:	bf9d                	j	8002e76 <image_x_validate+0x36>
D:/work/WIFI_GD32VW/Github_GD32VW55x/MBL/mainboot/mbl_image_validate.c:195
        rom_trace_ex(ROM_ERR, "Update Main Image version counter failed(%d).\r\n", ret);
 8002f02:	36092783          	lw	a5,864(s2)
 8002f06:	080015b7          	lui	a1,0x8001
 8002f0a:	862a                	mv	a2,a0
 8002f0c:	43dc                	lw	a5,4(a5)
 8002f0e:	5ec58593          	addi	a1,a1,1516 # 80015ec <_sicode+0x320>
 8002f12:	4509                	li	a0,2
 8002f14:	9782                	jalr	a5
D:/work/WIFI_GD32VW/Github_GD32VW55x/MBL/mainboot/mbl_image_validate.c:196
        result = -5;
 8002f16:	546d                	li	s0,-5
D:/work/WIFI_GD32VW/Github_GD32VW55x/MBL/mainboot/mbl_image_validate.c:197
        goto Failed;
 8002f18:	bf61                	j	8002eb0 <image_x_validate+0x70>
D:/work/WIFI_GD32VW/Github_GD32VW55x/MBL/mainboot/mbl_image_validate.c:175
            rom_trace_ex(ROM_ERR, "image_x_validate: cert or image verified failed(%d). \r\n", ret);
 8002f1a:	43dc                	lw	a5,4(a5)
 8002f1c:	080015b7          	lui	a1,0x8001
 8002f20:	862a                	mv	a2,a0
 8002f22:	53858593          	addi	a1,a1,1336 # 8001538 <_sicode+0x26c>
 8002f26:	4509                	li	a0,2
 8002f28:	9782                	jalr	a5
D:/work/WIFI_GD32VW/Github_GD32VW55x/MBL/mainboot/mbl_image_validate.c:176
            result = -3;
 8002f2a:	5475                	li	s0,-3
D:/work/WIFI_GD32VW/Github_GD32VW55x/MBL/mainboot/mbl_image_validate.c:177
            goto Failed;
 8002f2c:	b751                	j	8002eb0 <image_x_validate+0x70>
D:/work/WIFI_GD32VW/Github_GD32VW55x/MBL/mainboot/mbl_image_validate.c:184
            rom_trace_ex(ROM_ERR, "image_x_validate: Image verified failed (%d). \r\n", ret);
 8002f2e:	43dc                	lw	a5,4(a5)
 8002f30:	080015b7          	lui	a1,0x8001
 8002f34:	862a                	mv	a2,a0
 8002f36:	59c58593          	addi	a1,a1,1436 # 800159c <_sicode+0x2d0>
 8002f3a:	4509                	li	a0,2
 8002f3c:	9782                	jalr	a5
D:/work/WIFI_GD32VW/Github_GD32VW55x/MBL/mainboot/mbl_image_validate.c:185
            result = -4;
 8002f3e:	5471                	li	s0,-4
D:/work/WIFI_GD32VW/Github_GD32VW55x/MBL/mainboot/mbl_image_validate.c:186
            goto Failed;
 8002f40:	bf85                	j	8002eb0 <image_x_validate+0x70>

08002f42 <__riscv_save_12>:
__riscv_save_12():
/home/xl_ci/toolchain/riscv-gnu-toolchain/riscv-gcc/libgcc/config/riscv/save-restore.S:343
 8002f42:	7139                	addi	sp,sp,-64
/home/xl_ci/toolchain/riscv-gnu-toolchain/riscv-gcc/libgcc/config/riscv/save-restore.S:345
 8002f44:	4301                	li	t1,0
/home/xl_ci/toolchain/riscv-gnu-toolchain/riscv-gcc/libgcc/config/riscv/save-restore.S:346
 8002f46:	c66e                	sw	s11,12(sp)
/home/xl_ci/toolchain/riscv-gnu-toolchain/riscv-gcc/libgcc/config/riscv/save-restore.S:348
 8002f48:	a019                	j	8002f4e <__riscv_save_10+0x4>

08002f4a <__riscv_save_10>:
/home/xl_ci/toolchain/riscv-gnu-toolchain/riscv-gcc/libgcc/config/riscv/save-restore.S:355
 8002f4a:	7139                	addi	sp,sp,-64
/home/xl_ci/toolchain/riscv-gnu-toolchain/riscv-gcc/libgcc/config/riscv/save-restore.S:357
 8002f4c:	5341                	li	t1,-16
/home/xl_ci/toolchain/riscv-gnu-toolchain/riscv-gcc/libgcc/config/riscv/save-restore.S:359
 8002f4e:	c86a                	sw	s10,16(sp)
/home/xl_ci/toolchain/riscv-gnu-toolchain/riscv-gcc/libgcc/config/riscv/save-restore.S:361
 8002f50:	ca66                	sw	s9,20(sp)
/home/xl_ci/toolchain/riscv-gnu-toolchain/riscv-gcc/libgcc/config/riscv/save-restore.S:363
 8002f52:	cc62                	sw	s8,24(sp)
/home/xl_ci/toolchain/riscv-gnu-toolchain/riscv-gcc/libgcc/config/riscv/save-restore.S:365
 8002f54:	ce5e                	sw	s7,28(sp)
/home/xl_ci/toolchain/riscv-gnu-toolchain/riscv-gcc/libgcc/config/riscv/save-restore.S:367
 8002f56:	a019                	j	8002f5c <__riscv_save_4+0x4>

08002f58 <__riscv_save_4>:
/home/xl_ci/toolchain/riscv-gnu-toolchain/riscv-gcc/libgcc/config/riscv/save-restore.S:378
 8002f58:	7139                	addi	sp,sp,-64
/home/xl_ci/toolchain/riscv-gnu-toolchain/riscv-gcc/libgcc/config/riscv/save-restore.S:380
 8002f5a:	5301                	li	t1,-32
/home/xl_ci/toolchain/riscv-gnu-toolchain/riscv-gcc/libgcc/config/riscv/save-restore.S:382
 8002f5c:	d05a                	sw	s6,32(sp)
/home/xl_ci/toolchain/riscv-gnu-toolchain/riscv-gcc/libgcc/config/riscv/save-restore.S:384
 8002f5e:	d256                	sw	s5,36(sp)
/home/xl_ci/toolchain/riscv-gnu-toolchain/riscv-gcc/libgcc/config/riscv/save-restore.S:386
 8002f60:	d452                	sw	s4,40(sp)
/home/xl_ci/toolchain/riscv-gnu-toolchain/riscv-gcc/libgcc/config/riscv/save-restore.S:388
 8002f62:	d64e                	sw	s3,44(sp)
/home/xl_ci/toolchain/riscv-gnu-toolchain/riscv-gcc/libgcc/config/riscv/save-restore.S:390
 8002f64:	d84a                	sw	s2,48(sp)
/home/xl_ci/toolchain/riscv-gnu-toolchain/riscv-gcc/libgcc/config/riscv/save-restore.S:392
 8002f66:	da26                	sw	s1,52(sp)
/home/xl_ci/toolchain/riscv-gnu-toolchain/riscv-gcc/libgcc/config/riscv/save-restore.S:394
 8002f68:	dc22                	sw	s0,56(sp)
/home/xl_ci/toolchain/riscv-gnu-toolchain/riscv-gcc/libgcc/config/riscv/save-restore.S:396
 8002f6a:	de06                	sw	ra,60(sp)
/home/xl_ci/toolchain/riscv-gnu-toolchain/riscv-gcc/libgcc/config/riscv/save-restore.S:400
 8002f6c:	40610133          	sub	sp,sp,t1
/home/xl_ci/toolchain/riscv-gnu-toolchain/riscv-gcc/libgcc/config/riscv/save-restore.S:401
 8002f70:	8282                	jr	t0

08002f72 <__riscv_save_0>:
__riscv_save_1():
/home/xl_ci/toolchain/riscv-gnu-toolchain/riscv-gcc/libgcc/config/riscv/save-restore.S:420
 8002f72:	1141                	addi	sp,sp,-16
/home/xl_ci/toolchain/riscv-gnu-toolchain/riscv-gcc/libgcc/config/riscv/save-restore.S:422
 8002f74:	c04a                	sw	s2,0(sp)
/home/xl_ci/toolchain/riscv-gnu-toolchain/riscv-gcc/libgcc/config/riscv/save-restore.S:423
 8002f76:	c226                	sw	s1,4(sp)
/home/xl_ci/toolchain/riscv-gnu-toolchain/riscv-gcc/libgcc/config/riscv/save-restore.S:425
 8002f78:	c422                	sw	s0,8(sp)
/home/xl_ci/toolchain/riscv-gnu-toolchain/riscv-gcc/libgcc/config/riscv/save-restore.S:427
 8002f7a:	c606                	sw	ra,12(sp)
/home/xl_ci/toolchain/riscv-gnu-toolchain/riscv-gcc/libgcc/config/riscv/save-restore.S:429
 8002f7c:	8282                	jr	t0

08002f7e <__riscv_restore_12>:
__riscv_restore_12():
/home/xl_ci/toolchain/riscv-gnu-toolchain/riscv-gcc/libgcc/config/riscv/save-restore.S:452
 8002f7e:	4db2                	lw	s11,12(sp)
/home/xl_ci/toolchain/riscv-gnu-toolchain/riscv-gcc/libgcc/config/riscv/save-restore.S:454
 8002f80:	0141                	addi	sp,sp,16

08002f82 <__riscv_restore_10>:
/home/xl_ci/toolchain/riscv-gnu-toolchain/riscv-gcc/libgcc/config/riscv/save-restore.S:462
 8002f82:	4d02                	lw	s10,0(sp)
/home/xl_ci/toolchain/riscv-gnu-toolchain/riscv-gcc/libgcc/config/riscv/save-restore.S:464
 8002f84:	4c92                	lw	s9,4(sp)
/home/xl_ci/toolchain/riscv-gnu-toolchain/riscv-gcc/libgcc/config/riscv/save-restore.S:466
 8002f86:	4c22                	lw	s8,8(sp)
/home/xl_ci/toolchain/riscv-gnu-toolchain/riscv-gcc/libgcc/config/riscv/save-restore.S:468
 8002f88:	4bb2                	lw	s7,12(sp)
/home/xl_ci/toolchain/riscv-gnu-toolchain/riscv-gcc/libgcc/config/riscv/save-restore.S:470
 8002f8a:	0141                	addi	sp,sp,16

08002f8c <__riscv_restore_4>:
/home/xl_ci/toolchain/riscv-gnu-toolchain/riscv-gcc/libgcc/config/riscv/save-restore.S:482
 8002f8c:	4b02                	lw	s6,0(sp)
/home/xl_ci/toolchain/riscv-gnu-toolchain/riscv-gcc/libgcc/config/riscv/save-restore.S:484
 8002f8e:	4a92                	lw	s5,4(sp)
/home/xl_ci/toolchain/riscv-gnu-toolchain/riscv-gcc/libgcc/config/riscv/save-restore.S:486
 8002f90:	4a22                	lw	s4,8(sp)
/home/xl_ci/toolchain/riscv-gnu-toolchain/riscv-gcc/libgcc/config/riscv/save-restore.S:488
 8002f92:	49b2                	lw	s3,12(sp)
/home/xl_ci/toolchain/riscv-gnu-toolchain/riscv-gcc/libgcc/config/riscv/save-restore.S:490
 8002f94:	0141                	addi	sp,sp,16

08002f96 <__riscv_restore_0>:
/home/xl_ci/toolchain/riscv-gnu-toolchain/riscv-gcc/libgcc/config/riscv/save-restore.S:505
 8002f96:	4902                	lw	s2,0(sp)
/home/xl_ci/toolchain/riscv-gnu-toolchain/riscv-gcc/libgcc/config/riscv/save-restore.S:507
 8002f98:	4492                	lw	s1,4(sp)
/home/xl_ci/toolchain/riscv-gnu-toolchain/riscv-gcc/libgcc/config/riscv/save-restore.S:509
 8002f9a:	4422                	lw	s0,8(sp)
/home/xl_ci/toolchain/riscv-gnu-toolchain/riscv-gcc/libgcc/config/riscv/save-restore.S:511
 8002f9c:	40b2                	lw	ra,12(sp)
/home/xl_ci/toolchain/riscv-gnu-toolchain/riscv-gcc/libgcc/config/riscv/save-restore.S:513
 8002f9e:	0141                	addi	sp,sp,16
/home/xl_ci/toolchain/riscv-gnu-toolchain/riscv-gcc/libgcc/config/riscv/save-restore.S:515
 8002fa0:	8082                	ret

08002fa2 <atexit>:
atexit():
 8002fa2:	85aa                	mv	a1,a0
 8002fa4:	4681                	li	a3,0
 8002fa6:	4601                	li	a2,0
 8002fa8:	4501                	li	a0,0
 8002faa:	a11d                	j	80033d0 <__register_exitproc>

08002fac <__libc_fini_array>:
__libc_fini_array():
 8002fac:	1141                	addi	sp,sp,-16
 8002fae:	c422                	sw	s0,8(sp)
 8002fb0:	c226                	sw	s1,4(sp)
 8002fb2:	00001417          	auipc	s0,0x1
 8002fb6:	35640413          	addi	s0,s0,854 # 8004308 <__fini_array_end>
 8002fba:	00001497          	auipc	s1,0x1
 8002fbe:	34e48493          	addi	s1,s1,846 # 8004308 <__fini_array_end>
 8002fc2:	8c05                	sub	s0,s0,s1
 8002fc4:	c606                	sw	ra,12(sp)
 8002fc6:	8409                	srai	s0,s0,0x2
 8002fc8:	e411                	bnez	s0,8002fd4 <__libc_fini_array+0x28>
 8002fca:	40b2                	lw	ra,12(sp)
 8002fcc:	4422                	lw	s0,8(sp)
 8002fce:	4492                	lw	s1,4(sp)
 8002fd0:	0141                	addi	sp,sp,16
 8002fd2:	8082                	ret
 8002fd4:	147d                	addi	s0,s0,-1
 8002fd6:	209447b3          	sh2add	a5,s0,s1
 8002fda:	439c                	lw	a5,0(a5)
 8002fdc:	9782                	jalr	a5
 8002fde:	b7ed                	j	8002fc8 <__libc_fini_array+0x1c>

08002fe0 <__libc_init_array>:
__libc_init_array():
 8002fe0:	1141                	addi	sp,sp,-16
 8002fe2:	c422                	sw	s0,8(sp)
 8002fe4:	c226                	sw	s1,4(sp)
 8002fe6:	00001417          	auipc	s0,0x1
 8002fea:	32240413          	addi	s0,s0,802 # 8004308 <__fini_array_end>
 8002fee:	00001497          	auipc	s1,0x1
 8002ff2:	31a48493          	addi	s1,s1,794 # 8004308 <__fini_array_end>
 8002ff6:	8c81                	sub	s1,s1,s0
 8002ff8:	c04a                	sw	s2,0(sp)
 8002ffa:	c606                	sw	ra,12(sp)
 8002ffc:	8489                	srai	s1,s1,0x2
 8002ffe:	4901                	li	s2,0
 8003000:	02991563          	bne	s2,s1,800302a <__libc_init_array+0x4a>
 8003004:	00001417          	auipc	s0,0x1
 8003008:	30440413          	addi	s0,s0,772 # 8004308 <__fini_array_end>
 800300c:	00001497          	auipc	s1,0x1
 8003010:	2fc48493          	addi	s1,s1,764 # 8004308 <__fini_array_end>
 8003014:	8c81                	sub	s1,s1,s0
 8003016:	8489                	srai	s1,s1,0x2
 8003018:	4901                	li	s2,0
 800301a:	00991d63          	bne	s2,s1,8003034 <__libc_init_array+0x54>
 800301e:	40b2                	lw	ra,12(sp)
 8003020:	4422                	lw	s0,8(sp)
 8003022:	4492                	lw	s1,4(sp)
 8003024:	4902                	lw	s2,0(sp)
 8003026:	0141                	addi	sp,sp,16
 8003028:	8082                	ret
 800302a:	401c                	lw	a5,0(s0)
 800302c:	0905                	addi	s2,s2,1
 800302e:	0411                	addi	s0,s0,4
 8003030:	9782                	jalr	a5
 8003032:	b7f9                	j	8003000 <__libc_init_array+0x20>
 8003034:	401c                	lw	a5,0(s0)
 8003036:	0905                	addi	s2,s2,1
 8003038:	0411                	addi	s0,s0,4
 800303a:	9782                	jalr	a5
 800303c:	bff9                	j	800301a <__libc_init_array+0x3a>

0800303e <memset>:
memset():
 800303e:	433d                	li	t1,15
 8003040:	872a                	mv	a4,a0
 8003042:	02c37363          	bgeu	t1,a2,8003068 <memset+0x2a>
 8003046:	00f77793          	andi	a5,a4,15
 800304a:	efbd                	bnez	a5,80030c8 <memset+0x8a>
 800304c:	e5ad                	bnez	a1,80030b6 <memset+0x78>
 800304e:	ff067693          	andi	a3,a2,-16
 8003052:	8a3d                	andi	a2,a2,15
 8003054:	96ba                	add	a3,a3,a4
 8003056:	c30c                	sw	a1,0(a4)
 8003058:	c34c                	sw	a1,4(a4)
 800305a:	c70c                	sw	a1,8(a4)
 800305c:	c74c                	sw	a1,12(a4)
 800305e:	0741                	addi	a4,a4,16
 8003060:	fed76be3          	bltu	a4,a3,8003056 <memset+0x18>
 8003064:	e211                	bnez	a2,8003068 <memset+0x2a>
 8003066:	8082                	ret
 8003068:	40c306b3          	sub	a3,t1,a2
 800306c:	068a                	slli	a3,a3,0x2
 800306e:	00000297          	auipc	t0,0x0
 8003072:	9696                	add	a3,a3,t0
 8003074:	00a68067          	jr	10(a3) # ff8f000a <_sp+0xdf8eb70a>
 8003078:	00b70723          	sb	a1,14(a4)
 800307c:	00b706a3          	sb	a1,13(a4)
 8003080:	00b70623          	sb	a1,12(a4)
 8003084:	00b705a3          	sb	a1,11(a4)
 8003088:	00b70523          	sb	a1,10(a4)
 800308c:	00b704a3          	sb	a1,9(a4)
 8003090:	00b70423          	sb	a1,8(a4)
 8003094:	00b703a3          	sb	a1,7(a4)
 8003098:	00b70323          	sb	a1,6(a4)
 800309c:	00b702a3          	sb	a1,5(a4)
 80030a0:	00b70223          	sb	a1,4(a4)
 80030a4:	00b701a3          	sb	a1,3(a4)
 80030a8:	00b70123          	sb	a1,2(a4)
 80030ac:	00b700a3          	sb	a1,1(a4)
 80030b0:	00b70023          	sb	a1,0(a4)
 80030b4:	8082                	ret
 80030b6:	0ff5f593          	zext.b	a1,a1
 80030ba:	00859693          	slli	a3,a1,0x8
 80030be:	8dd5                	or	a1,a1,a3
 80030c0:	01059693          	slli	a3,a1,0x10
 80030c4:	8dd5                	or	a1,a1,a3
 80030c6:	b761                	j	800304e <memset+0x10>
 80030c8:	00279693          	slli	a3,a5,0x2
 80030cc:	00000297          	auipc	t0,0x0
 80030d0:	9696                	add	a3,a3,t0
 80030d2:	8286                	mv	t0,ra
 80030d4:	fa8680e7          	jalr	-88(a3)
 80030d8:	8096                	mv	ra,t0
 80030da:	17c1                	addi	a5,a5,-16
 80030dc:	8f1d                	sub	a4,a4,a5
 80030de:	963e                	add	a2,a2,a5
 80030e0:	f8c374e3          	bgeu	t1,a2,8003068 <memset+0x2a>
 80030e4:	b7a5                	j	800304c <memset+0xe>

080030e6 <iprintf>:
printf():
 80030e6:	715d                	addi	sp,sp,-80
 80030e8:	d422                	sw	s0,40(sp)
 80030ea:	d606                	sw	ra,44(sp)
 80030ec:	842a                	mv	s0,a0
 80030ee:	da2e                	sw	a1,52(sp)
 80030f0:	dc32                	sw	a2,56(sp)
 80030f2:	de36                	sw	a3,60(sp)
 80030f4:	c0ba                	sw	a4,64(sp)
 80030f6:	c2be                	sw	a5,68(sp)
 80030f8:	c4c2                	sw	a6,72(sp)
 80030fa:	c6c6                	sw	a7,76(sp)
 80030fc:	17ffd517          	auipc	a0,0x17ffd
 8003100:	26852503          	lw	a0,616(a0) # 20000364 <_impure_ptr>
 8003104:	c511                	beqz	a0,8003110 <iprintf+0x2a>
 8003106:	4d1c                	lw	a5,24(a0)
 8003108:	e781                	bnez	a5,8003110 <iprintf+0x2a>
 800310a:	c62a                	sw	a0,12(sp)
 800310c:	2b41                	jal	800369c <__sinit>
 800310e:	4532                	lw	a0,12(sp)
 8003110:	450c                	lw	a1,8(a0)
 8003112:	1854                	addi	a3,sp,52
 8003114:	8622                	mv	a2,s0
 8003116:	ce36                	sw	a3,28(sp)
 8003118:	1d3000ef          	jal	ra,8003aea <_vfiprintf_r>
 800311c:	50b2                	lw	ra,44(sp)
 800311e:	5422                	lw	s0,40(sp)
 8003120:	6161                	addi	sp,sp,80
 8003122:	8082                	ret

08003124 <_puts_r>:
_puts_r():
 8003124:	1101                	addi	sp,sp,-32
 8003126:	ca26                	sw	s1,20(sp)
 8003128:	c84a                	sw	s2,16(sp)
 800312a:	ce06                	sw	ra,28(sp)
 800312c:	cc22                	sw	s0,24(sp)
 800312e:	c64e                	sw	s3,12(sp)
 8003130:	c452                	sw	s4,8(sp)
 8003132:	84aa                	mv	s1,a0
 8003134:	892e                	mv	s2,a1
 8003136:	c501                	beqz	a0,800313e <_puts_r+0x1a>
 8003138:	4d1c                	lw	a5,24(a0)
 800313a:	e391                	bnez	a5,800313e <_puts_r+0x1a>
 800313c:	2385                	jal	800369c <__sinit>
 800313e:	4c9c                	lw	a5,24(s1)
 8003140:	4480                	lw	s0,8(s1)
 8003142:	e399                	bnez	a5,8003148 <_puts_r+0x24>
 8003144:	8526                	mv	a0,s1
 8003146:	2b99                	jal	800369c <__sinit>
 8003148:	ffffe797          	auipc	a5,0xffffe
 800314c:	52078793          	addi	a5,a5,1312 # 8001668 <__sf_fake_stdin>
 8003150:	02f41c63          	bne	s0,a5,8003188 <_puts_r+0x64>
 8003154:	40c0                	lw	s0,4(s1)
 8003156:	00c45783          	lhu	a5,12(s0)
 800315a:	8ba1                	andi	a5,a5,8
 800315c:	c7b1                	beqz	a5,80031a8 <_puts_r+0x84>
 800315e:	481c                	lw	a5,16(s0)
 8003160:	c7a1                	beqz	a5,80031a8 <_puts_r+0x84>
 8003162:	59fd                	li	s3,-1
 8003164:	4a29                	li	s4,10
 8003166:	441c                	lw	a5,8(s0)
 8003168:	00094583          	lbu	a1,0(s2)
 800316c:	17fd                	addi	a5,a5,-1
 800316e:	e9b1                	bnez	a1,80031c2 <_puts_r+0x9e>
 8003170:	c41c                	sw	a5,8(s0)
 8003172:	0607de63          	bgez	a5,80031ee <_puts_r+0xca>
 8003176:	8622                	mv	a2,s0
 8003178:	45a9                	li	a1,10
 800317a:	8526                	mv	a0,s1
 800317c:	2079                	jal	800320a <__swbuf_r>
 800317e:	57fd                	li	a5,-1
 8003180:	02f50863          	beq	a0,a5,80031b0 <_puts_r+0x8c>
 8003184:	4529                	li	a0,10
 8003186:	a035                	j	80031b2 <_puts_r+0x8e>
 8003188:	ffffe797          	auipc	a5,0xffffe
 800318c:	50078793          	addi	a5,a5,1280 # 8001688 <__sf_fake_stdout>
 8003190:	00f41463          	bne	s0,a5,8003198 <_puts_r+0x74>
 8003194:	4480                	lw	s0,8(s1)
 8003196:	b7c1                	j	8003156 <_puts_r+0x32>
 8003198:	ffffe797          	auipc	a5,0xffffe
 800319c:	4b078793          	addi	a5,a5,1200 # 8001648 <__sf_fake_stderr>
 80031a0:	faf41be3          	bne	s0,a5,8003156 <_puts_r+0x32>
 80031a4:	44c0                	lw	s0,12(s1)
 80031a6:	bf45                	j	8003156 <_puts_r+0x32>
 80031a8:	85a2                	mv	a1,s0
 80031aa:	8526                	mv	a0,s1
 80031ac:	2a39                	jal	80032ca <__swsetup_r>
 80031ae:	d955                	beqz	a0,8003162 <_puts_r+0x3e>
 80031b0:	557d                	li	a0,-1
 80031b2:	40f2                	lw	ra,28(sp)
 80031b4:	4462                	lw	s0,24(sp)
 80031b6:	44d2                	lw	s1,20(sp)
 80031b8:	4942                	lw	s2,16(sp)
 80031ba:	49b2                	lw	s3,12(sp)
 80031bc:	4a22                	lw	s4,8(sp)
 80031be:	6105                	addi	sp,sp,32
 80031c0:	8082                	ret
 80031c2:	c41c                	sw	a5,8(s0)
 80031c4:	0905                	addi	s2,s2,1
 80031c6:	0007d763          	bgez	a5,80031d4 <_puts_r+0xb0>
 80031ca:	4c18                	lw	a4,24(s0)
 80031cc:	00e7cb63          	blt	a5,a4,80031e2 <_puts_r+0xbe>
 80031d0:	01458963          	beq	a1,s4,80031e2 <_puts_r+0xbe>
 80031d4:	401c                	lw	a5,0(s0)
 80031d6:	00178713          	addi	a4,a5,1
 80031da:	c018                	sw	a4,0(s0)
 80031dc:	00b78023          	sb	a1,0(a5)
 80031e0:	b759                	j	8003166 <_puts_r+0x42>
 80031e2:	8622                	mv	a2,s0
 80031e4:	8526                	mv	a0,s1
 80031e6:	2015                	jal	800320a <__swbuf_r>
 80031e8:	f7351fe3          	bne	a0,s3,8003166 <_puts_r+0x42>
 80031ec:	b7d1                	j	80031b0 <_puts_r+0x8c>
 80031ee:	401c                	lw	a5,0(s0)
 80031f0:	00178713          	addi	a4,a5,1
 80031f4:	c018                	sw	a4,0(s0)
 80031f6:	4729                	li	a4,10
 80031f8:	00e78023          	sb	a4,0(a5)
 80031fc:	b761                	j	8003184 <_puts_r+0x60>

080031fe <puts>:
puts():
 80031fe:	85aa                	mv	a1,a0
 8003200:	17ffd517          	auipc	a0,0x17ffd
 8003204:	16452503          	lw	a0,356(a0) # 20000364 <_impure_ptr>
 8003208:	bf31                	j	8003124 <_puts_r>

0800320a <__swbuf_r>:
__swbuf_r():
 800320a:	1101                	addi	sp,sp,-32
 800320c:	cc22                	sw	s0,24(sp)
 800320e:	ca26                	sw	s1,20(sp)
 8003210:	c84a                	sw	s2,16(sp)
 8003212:	ce06                	sw	ra,28(sp)
 8003214:	c64e                	sw	s3,12(sp)
 8003216:	84aa                	mv	s1,a0
 8003218:	892e                	mv	s2,a1
 800321a:	8432                	mv	s0,a2
 800321c:	c501                	beqz	a0,8003224 <__swbuf_r+0x1a>
 800321e:	4d1c                	lw	a5,24(a0)
 8003220:	e391                	bnez	a5,8003224 <__swbuf_r+0x1a>
 8003222:	29ad                	jal	800369c <__sinit>
 8003224:	ffffe797          	auipc	a5,0xffffe
 8003228:	44478793          	addi	a5,a5,1092 # 8001668 <__sf_fake_stdin>
 800322c:	06f41963          	bne	s0,a5,800329e <__swbuf_r+0x94>
 8003230:	40c0                	lw	s0,4(s1)
 8003232:	4c1c                	lw	a5,24(s0)
 8003234:	c41c                	sw	a5,8(s0)
 8003236:	00c45783          	lhu	a5,12(s0)
 800323a:	8ba1                	andi	a5,a5,8
 800323c:	c3c9                	beqz	a5,80032be <__swbuf_r+0xb4>
 800323e:	481c                	lw	a5,16(s0)
 8003240:	cfbd                	beqz	a5,80032be <__swbuf_r+0xb4>
 8003242:	481c                	lw	a5,16(s0)
 8003244:	4008                	lw	a0,0(s0)
 8003246:	0ff97993          	zext.b	s3,s2
 800324a:	0ff97913          	zext.b	s2,s2
 800324e:	8d1d                	sub	a0,a0,a5
 8003250:	485c                	lw	a5,20(s0)
 8003252:	00f54663          	blt	a0,a5,800325e <__swbuf_r+0x54>
 8003256:	85a2                	mv	a1,s0
 8003258:	8526                	mv	a0,s1
 800325a:	2615                	jal	800357e <_fflush_r>
 800325c:	e52d                	bnez	a0,80032c6 <__swbuf_r+0xbc>
 800325e:	441c                	lw	a5,8(s0)
 8003260:	0505                	addi	a0,a0,1
 8003262:	17fd                	addi	a5,a5,-1
 8003264:	c41c                	sw	a5,8(s0)
 8003266:	401c                	lw	a5,0(s0)
 8003268:	00178713          	addi	a4,a5,1
 800326c:	c018                	sw	a4,0(s0)
 800326e:	01378023          	sb	s3,0(a5)
 8003272:	485c                	lw	a5,20(s0)
 8003274:	00a78963          	beq	a5,a0,8003286 <__swbuf_r+0x7c>
 8003278:	00c45783          	lhu	a5,12(s0)
 800327c:	8b85                	andi	a5,a5,1
 800327e:	cb81                	beqz	a5,800328e <__swbuf_r+0x84>
 8003280:	47a9                	li	a5,10
 8003282:	00f91663          	bne	s2,a5,800328e <__swbuf_r+0x84>
 8003286:	85a2                	mv	a1,s0
 8003288:	8526                	mv	a0,s1
 800328a:	2cd5                	jal	800357e <_fflush_r>
 800328c:	ed0d                	bnez	a0,80032c6 <__swbuf_r+0xbc>
 800328e:	40f2                	lw	ra,28(sp)
 8003290:	4462                	lw	s0,24(sp)
 8003292:	44d2                	lw	s1,20(sp)
 8003294:	49b2                	lw	s3,12(sp)
 8003296:	854a                	mv	a0,s2
 8003298:	4942                	lw	s2,16(sp)
 800329a:	6105                	addi	sp,sp,32
 800329c:	8082                	ret
 800329e:	ffffe797          	auipc	a5,0xffffe
 80032a2:	3ea78793          	addi	a5,a5,1002 # 8001688 <__sf_fake_stdout>
 80032a6:	00f41463          	bne	s0,a5,80032ae <__swbuf_r+0xa4>
 80032aa:	4480                	lw	s0,8(s1)
 80032ac:	b759                	j	8003232 <__swbuf_r+0x28>
 80032ae:	ffffe797          	auipc	a5,0xffffe
 80032b2:	39a78793          	addi	a5,a5,922 # 8001648 <__sf_fake_stderr>
 80032b6:	f6f41ee3          	bne	s0,a5,8003232 <__swbuf_r+0x28>
 80032ba:	44c0                	lw	s0,12(s1)
 80032bc:	bf9d                	j	8003232 <__swbuf_r+0x28>
 80032be:	85a2                	mv	a1,s0
 80032c0:	8526                	mv	a0,s1
 80032c2:	2021                	jal	80032ca <__swsetup_r>
 80032c4:	dd3d                	beqz	a0,8003242 <__swbuf_r+0x38>
 80032c6:	597d                	li	s2,-1
 80032c8:	b7d9                	j	800328e <__swbuf_r+0x84>

080032ca <__swsetup_r>:
__swsetup_r():
 80032ca:	1141                	addi	sp,sp,-16
 80032cc:	c422                	sw	s0,8(sp)
 80032ce:	c226                	sw	s1,4(sp)
 80032d0:	c04a                	sw	s2,0(sp)
 80032d2:	c606                	sw	ra,12(sp)
 80032d4:	17ffd497          	auipc	s1,0x17ffd
 80032d8:	0904a483          	lw	s1,144(s1) # 20000364 <_impure_ptr>
 80032dc:	892a                	mv	s2,a0
 80032de:	842e                	mv	s0,a1
 80032e0:	c489                	beqz	s1,80032ea <__swsetup_r+0x20>
 80032e2:	4c9c                	lw	a5,24(s1)
 80032e4:	e399                	bnez	a5,80032ea <__swsetup_r+0x20>
 80032e6:	8526                	mv	a0,s1
 80032e8:	2e55                	jal	800369c <__sinit>
 80032ea:	ffffe797          	auipc	a5,0xffffe
 80032ee:	37e78793          	addi	a5,a5,894 # 8001668 <__sf_fake_stdin>
 80032f2:	02f41663          	bne	s0,a5,800331e <__swsetup_r+0x54>
 80032f6:	40c0                	lw	s0,4(s1)
 80032f8:	00c41783          	lh	a5,12(s0)
 80032fc:	0087f693          	andi	a3,a5,8
 8003300:	0807c733          	zext.h	a4,a5
 8003304:	eaad                	bnez	a3,8003376 <__swsetup_r+0xac>
 8003306:	01077693          	andi	a3,a4,16
 800330a:	ea95                	bnez	a3,800333e <__swsetup_r+0x74>
 800330c:	4725                	li	a4,9
 800330e:	00e92023          	sw	a4,0(s2)
 8003312:	0407e793          	ori	a5,a5,64
 8003316:	00f41623          	sh	a5,12(s0)
 800331a:	557d                	li	a0,-1
 800331c:	a869                	j	80033b6 <__swsetup_r+0xec>
 800331e:	ffffe797          	auipc	a5,0xffffe
 8003322:	36a78793          	addi	a5,a5,874 # 8001688 <__sf_fake_stdout>
 8003326:	00f41463          	bne	s0,a5,800332e <__swsetup_r+0x64>
 800332a:	4480                	lw	s0,8(s1)
 800332c:	b7f1                	j	80032f8 <__swsetup_r+0x2e>
 800332e:	ffffe797          	auipc	a5,0xffffe
 8003332:	31a78793          	addi	a5,a5,794 # 8001648 <__sf_fake_stderr>
 8003336:	fcf411e3          	bne	s0,a5,80032f8 <__swsetup_r+0x2e>
 800333a:	44c0                	lw	s0,12(s1)
 800333c:	bf75                	j	80032f8 <__swsetup_r+0x2e>
 800333e:	8b11                	andi	a4,a4,4
 8003340:	c70d                	beqz	a4,800336a <__swsetup_r+0xa0>
 8003342:	584c                	lw	a1,52(s0)
 8003344:	c989                	beqz	a1,8003356 <__swsetup_r+0x8c>
 8003346:	04440793          	addi	a5,s0,68
 800334a:	00f58463          	beq	a1,a5,8003352 <__swsetup_r+0x88>
 800334e:	854a                	mv	a0,s2
 8003350:	2b6d                	jal	800390a <_free_r>
 8003352:	02042a23          	sw	zero,52(s0)
 8003356:	00c45783          	lhu	a5,12(s0)
 800335a:	00042223          	sw	zero,4(s0)
 800335e:	fdb7f793          	andi	a5,a5,-37
 8003362:	00f41623          	sh	a5,12(s0)
 8003366:	481c                	lw	a5,16(s0)
 8003368:	c01c                	sw	a5,0(s0)
 800336a:	00c45783          	lhu	a5,12(s0)
 800336e:	0087e793          	ori	a5,a5,8
 8003372:	00f41623          	sh	a5,12(s0)
 8003376:	481c                	lw	a5,16(s0)
 8003378:	ef81                	bnez	a5,8003390 <__swsetup_r+0xc6>
 800337a:	00c45783          	lhu	a5,12(s0)
 800337e:	20000713          	li	a4,512
 8003382:	2807f793          	andi	a5,a5,640
 8003386:	00e78563          	beq	a5,a4,8003390 <__swsetup_r+0xc6>
 800338a:	85a2                	mv	a1,s0
 800338c:	854a                	mv	a0,s2
 800338e:	29f1                	jal	800386a <__smakebuf_r>
 8003390:	00c41783          	lh	a5,12(s0)
 8003394:	0017f693          	andi	a3,a5,1
 8003398:	0807c733          	zext.h	a4,a5
 800339c:	c29d                	beqz	a3,80033c2 <__swsetup_r+0xf8>
 800339e:	4854                	lw	a3,20(s0)
 80033a0:	00042423          	sw	zero,8(s0)
 80033a4:	40d006b3          	neg	a3,a3
 80033a8:	cc14                	sw	a3,24(s0)
 80033aa:	4814                	lw	a3,16(s0)
 80033ac:	4501                	li	a0,0
 80033ae:	e681                	bnez	a3,80033b6 <__swsetup_r+0xec>
 80033b0:	08077713          	andi	a4,a4,128
 80033b4:	ff39                	bnez	a4,8003312 <__swsetup_r+0x48>
 80033b6:	40b2                	lw	ra,12(sp)
 80033b8:	4422                	lw	s0,8(sp)
 80033ba:	4492                	lw	s1,4(sp)
 80033bc:	4902                	lw	s2,0(sp)
 80033be:	0141                	addi	sp,sp,16
 80033c0:	8082                	ret
 80033c2:	00277693          	andi	a3,a4,2
 80033c6:	4601                	li	a2,0
 80033c8:	e291                	bnez	a3,80033cc <__swsetup_r+0x102>
 80033ca:	4850                	lw	a2,20(s0)
 80033cc:	c410                	sw	a2,8(s0)
 80033ce:	bff1                	j	80033aa <__swsetup_r+0xe0>

080033d0 <__register_exitproc>:
__register_exitproc():
 80033d0:	88aa                	mv	a7,a0
 80033d2:	9e018513          	addi	a0,gp,-1568 # 20000540 <_global_atexit>
 80033d6:	4118                	lw	a4,0(a0)
 80033d8:	ef11                	bnez	a4,80033f4 <__register_exitproc+0x24>
 80033da:	18000797          	auipc	a5,0x18000
 80033de:	1ae78793          	addi	a5,a5,430 # 20003588 <_global_atexit0>
 80033e2:	c11c                	sw	a5,0(a0)
 80033e4:	00000513          	li	a0,0
 80033e8:	873e                	mv	a4,a5
 80033ea:	c509                	beqz	a0,80033f4 <__register_exitproc+0x24>
 80033ec:	4118                	lw	a4,0(a0)
 80033ee:	08e7a423          	sw	a4,136(a5)
 80033f2:	873e                	mv	a4,a5
 80033f4:	435c                	lw	a5,4(a4)
 80033f6:	487d                	li	a6,31
 80033f8:	557d                	li	a0,-1
 80033fa:	04f84463          	blt	a6,a5,8003442 <__register_exitproc+0x72>
 80033fe:	02088b63          	beqz	a7,8003434 <__register_exitproc+0x64>
 8003402:	08872803          	lw	a6,136(a4)
 8003406:	02080e63          	beqz	a6,8003442 <__register_exitproc+0x72>
 800340a:	2107c333          	sh2add	t1,a5,a6
 800340e:	00c32023          	sw	a2,0(t1)
 8003412:	10082603          	lw	a2,256(a6)
 8003416:	28f01533          	bset	a0,zero,a5
 800341a:	8e49                	or	a2,a2,a0
 800341c:	10c82023          	sw	a2,256(a6)
 8003420:	08d32023          	sw	a3,128(t1)
 8003424:	4689                	li	a3,2
 8003426:	00d89763          	bne	a7,a3,8003434 <__register_exitproc+0x64>
 800342a:	10482683          	lw	a3,260(a6)
 800342e:	8ec9                	or	a3,a3,a0
 8003430:	10d82223          	sw	a3,260(a6)
 8003434:	00178693          	addi	a3,a5,1
 8003438:	c354                	sw	a3,4(a4)
 800343a:	20e7c7b3          	sh2add	a5,a5,a4
 800343e:	4501                	li	a0,0
 8003440:	c78c                	sw	a1,8(a5)
 8003442:	8082                	ret

08003444 <__sflush_r>:
__sflush_r():
 8003444:	00c5d783          	lhu	a5,12(a1)
 8003448:	1101                	addi	sp,sp,-32
 800344a:	cc22                	sw	s0,24(sp)
 800344c:	ca26                	sw	s1,20(sp)
 800344e:	ce06                	sw	ra,28(sp)
 8003450:	c84a                	sw	s2,16(sp)
 8003452:	c64e                	sw	s3,12(sp)
 8003454:	0087f713          	andi	a4,a5,8
 8003458:	84aa                	mv	s1,a0
 800345a:	842e                	mv	s0,a1
 800345c:	ef61                	bnez	a4,8003534 <__sflush_r+0xf0>
 800345e:	41d8                	lw	a4,4(a1)
 8003460:	00e04d63          	bgtz	a4,800347a <__sflush_r+0x36>
 8003464:	41b8                	lw	a4,64(a1)
 8003466:	00e04a63          	bgtz	a4,800347a <__sflush_r+0x36>
 800346a:	4501                	li	a0,0
 800346c:	40f2                	lw	ra,28(sp)
 800346e:	4462                	lw	s0,24(sp)
 8003470:	44d2                	lw	s1,20(sp)
 8003472:	4942                	lw	s2,16(sp)
 8003474:	49b2                	lw	s3,12(sp)
 8003476:	6105                	addi	sp,sp,32
 8003478:	8082                	ret
 800347a:	5458                	lw	a4,44(s0)
 800347c:	d77d                	beqz	a4,800346a <__sflush_r+0x26>
 800347e:	6685                	lui	a3,0x1
 8003480:	0004a903          	lw	s2,0(s1)
 8003484:	8ff5                	and	a5,a5,a3
 8003486:	0004a023          	sw	zero,0(s1)
 800348a:	cbbd                	beqz	a5,8003500 <__sflush_r+0xbc>
 800348c:	4868                	lw	a0,84(s0)
 800348e:	00c45783          	lhu	a5,12(s0)
 8003492:	8b91                	andi	a5,a5,4
 8003494:	c799                	beqz	a5,80034a2 <__sflush_r+0x5e>
 8003496:	405c                	lw	a5,4(s0)
 8003498:	8d1d                	sub	a0,a0,a5
 800349a:	585c                	lw	a5,52(s0)
 800349c:	c399                	beqz	a5,80034a2 <__sflush_r+0x5e>
 800349e:	403c                	lw	a5,64(s0)
 80034a0:	8d1d                	sub	a0,a0,a5
 80034a2:	545c                	lw	a5,44(s0)
 80034a4:	500c                	lw	a1,32(s0)
 80034a6:	862a                	mv	a2,a0
 80034a8:	4681                	li	a3,0
 80034aa:	8526                	mv	a0,s1
 80034ac:	9782                	jalr	a5
 80034ae:	577d                	li	a4,-1
 80034b0:	00c45783          	lhu	a5,12(s0)
 80034b4:	00e51c63          	bne	a0,a4,80034cc <__sflush_r+0x88>
 80034b8:	4094                	lw	a3,0(s1)
 80034ba:	4775                	li	a4,29
 80034bc:	06d76763          	bltu	a4,a3,800352a <__sflush_r+0xe6>
 80034c0:	20400737          	lui	a4,0x20400
 80034c4:	0705                	addi	a4,a4,1
 80034c6:	48d75733          	bext	a4,a4,a3
 80034ca:	c325                	beqz	a4,800352a <__sflush_r+0xe6>
 80034cc:	4818                	lw	a4,16(s0)
 80034ce:	00042223          	sw	zero,4(s0)
 80034d2:	c018                	sw	a4,0(s0)
 80034d4:	6705                	lui	a4,0x1
 80034d6:	8ff9                	and	a5,a5,a4
 80034d8:	c799                	beqz	a5,80034e6 <__sflush_r+0xa2>
 80034da:	57fd                	li	a5,-1
 80034dc:	00f51463          	bne	a0,a5,80034e4 <__sflush_r+0xa0>
 80034e0:	409c                	lw	a5,0(s1)
 80034e2:	e391                	bnez	a5,80034e6 <__sflush_r+0xa2>
 80034e4:	c868                	sw	a0,84(s0)
 80034e6:	584c                	lw	a1,52(s0)
 80034e8:	0124a023          	sw	s2,0(s1)
 80034ec:	ddbd                	beqz	a1,800346a <__sflush_r+0x26>
 80034ee:	04440793          	addi	a5,s0,68
 80034f2:	00f58463          	beq	a1,a5,80034fa <__sflush_r+0xb6>
 80034f6:	8526                	mv	a0,s1
 80034f8:	2909                	jal	800390a <_free_r>
 80034fa:	02042a23          	sw	zero,52(s0)
 80034fe:	b7b5                	j	800346a <__sflush_r+0x26>
 8003500:	500c                	lw	a1,32(s0)
 8003502:	4685                	li	a3,1
 8003504:	4601                	li	a2,0
 8003506:	8526                	mv	a0,s1
 8003508:	9702                	jalr	a4
 800350a:	57fd                	li	a5,-1
 800350c:	f8f511e3          	bne	a0,a5,800348e <__sflush_r+0x4a>
 8003510:	409c                	lw	a5,0(s1)
 8003512:	dfb5                	beqz	a5,800348e <__sflush_r+0x4a>
 8003514:	4775                	li	a4,29
 8003516:	00e78563          	beq	a5,a4,8003520 <__sflush_r+0xdc>
 800351a:	4759                	li	a4,22
 800351c:	00e79563          	bne	a5,a4,8003526 <__sflush_r+0xe2>
 8003520:	0124a023          	sw	s2,0(s1)
 8003524:	b799                	j	800346a <__sflush_r+0x26>
 8003526:	00c45783          	lhu	a5,12(s0)
 800352a:	0407e793          	ori	a5,a5,64
 800352e:	00f41623          	sh	a5,12(s0)
 8003532:	bf2d                	j	800346c <__sflush_r+0x28>
 8003534:	0105a983          	lw	s3,16(a1)
 8003538:	f20989e3          	beqz	s3,800346a <__sflush_r+0x26>
 800353c:	0005a903          	lw	s2,0(a1)
 8003540:	8b8d                	andi	a5,a5,3
 8003542:	0135a023          	sw	s3,0(a1)
 8003546:	41390933          	sub	s2,s2,s3
 800354a:	4701                	li	a4,0
 800354c:	e391                	bnez	a5,8003550 <__sflush_r+0x10c>
 800354e:	49d8                	lw	a4,20(a1)
 8003550:	c418                	sw	a4,8(s0)
 8003552:	f1205ce3          	blez	s2,800346a <__sflush_r+0x26>
 8003556:	541c                	lw	a5,40(s0)
 8003558:	500c                	lw	a1,32(s0)
 800355a:	86ca                	mv	a3,s2
 800355c:	864e                	mv	a2,s3
 800355e:	8526                	mv	a0,s1
 8003560:	9782                	jalr	a5
 8003562:	00a04a63          	bgtz	a0,8003576 <__sflush_r+0x132>
 8003566:	00c45783          	lhu	a5,12(s0)
 800356a:	557d                	li	a0,-1
 800356c:	0407e793          	ori	a5,a5,64
 8003570:	00f41623          	sh	a5,12(s0)
 8003574:	bde5                	j	800346c <__sflush_r+0x28>
 8003576:	99aa                	add	s3,s3,a0
 8003578:	40a90933          	sub	s2,s2,a0
 800357c:	bfd9                	j	8003552 <__sflush_r+0x10e>

0800357e <_fflush_r>:
_fflush_r():
 800357e:	499c                	lw	a5,16(a1)
 8003580:	cfb9                	beqz	a5,80035de <_fflush_r+0x60>
 8003582:	1101                	addi	sp,sp,-32
 8003584:	cc22                	sw	s0,24(sp)
 8003586:	ce06                	sw	ra,28(sp)
 8003588:	842a                	mv	s0,a0
 800358a:	c511                	beqz	a0,8003596 <_fflush_r+0x18>
 800358c:	4d1c                	lw	a5,24(a0)
 800358e:	e781                	bnez	a5,8003596 <_fflush_r+0x18>
 8003590:	c62e                	sw	a1,12(sp)
 8003592:	2229                	jal	800369c <__sinit>
 8003594:	45b2                	lw	a1,12(sp)
 8003596:	ffffe797          	auipc	a5,0xffffe
 800359a:	0d278793          	addi	a5,a5,210 # 8001668 <__sf_fake_stdin>
 800359e:	00f59b63          	bne	a1,a5,80035b4 <_fflush_r+0x36>
 80035a2:	404c                	lw	a1,4(s0)
 80035a4:	00c59783          	lh	a5,12(a1)
 80035a8:	c795                	beqz	a5,80035d4 <_fflush_r+0x56>
 80035aa:	8522                	mv	a0,s0
 80035ac:	4462                	lw	s0,24(sp)
 80035ae:	40f2                	lw	ra,28(sp)
 80035b0:	6105                	addi	sp,sp,32
 80035b2:	bd49                	j	8003444 <__sflush_r>
 80035b4:	ffffe797          	auipc	a5,0xffffe
 80035b8:	0d478793          	addi	a5,a5,212 # 8001688 <__sf_fake_stdout>
 80035bc:	00f59463          	bne	a1,a5,80035c4 <_fflush_r+0x46>
 80035c0:	440c                	lw	a1,8(s0)
 80035c2:	b7cd                	j	80035a4 <_fflush_r+0x26>
 80035c4:	ffffe797          	auipc	a5,0xffffe
 80035c8:	08478793          	addi	a5,a5,132 # 8001648 <__sf_fake_stderr>
 80035cc:	fcf59ce3          	bne	a1,a5,80035a4 <_fflush_r+0x26>
 80035d0:	444c                	lw	a1,12(s0)
 80035d2:	bfc9                	j	80035a4 <_fflush_r+0x26>
 80035d4:	40f2                	lw	ra,28(sp)
 80035d6:	4462                	lw	s0,24(sp)
 80035d8:	4501                	li	a0,0
 80035da:	6105                	addi	sp,sp,32
 80035dc:	8082                	ret
 80035de:	4501                	li	a0,0
 80035e0:	8082                	ret

080035e2 <std>:
std():
 80035e2:	1141                	addi	sp,sp,-16
 80035e4:	c422                	sw	s0,8(sp)
 80035e6:	c606                	sw	ra,12(sp)
 80035e8:	842a                	mv	s0,a0
 80035ea:	00b51623          	sh	a1,12(a0)
 80035ee:	00c51723          	sh	a2,14(a0)
 80035f2:	00052023          	sw	zero,0(a0)
 80035f6:	00052223          	sw	zero,4(a0)
 80035fa:	00052423          	sw	zero,8(a0)
 80035fe:	06052223          	sw	zero,100(a0)
 8003602:	00052823          	sw	zero,16(a0)
 8003606:	00052a23          	sw	zero,20(a0)
 800360a:	00052c23          	sw	zero,24(a0)
 800360e:	4621                	li	a2,8
 8003610:	4581                	li	a1,0
 8003612:	05c50513          	addi	a0,a0,92
 8003616:	a29ff0ef          	jal	ra,800303e <memset>
 800361a:	00001797          	auipc	a5,0x1
 800361e:	afa78793          	addi	a5,a5,-1286 # 8004114 <__sread>
 8003622:	d05c                	sw	a5,36(s0)
 8003624:	00001797          	auipc	a5,0x1
 8003628:	b1e78793          	addi	a5,a5,-1250 # 8004142 <__swrite>
 800362c:	d41c                	sw	a5,40(s0)
 800362e:	00001797          	auipc	a5,0x1
 8003632:	b6078793          	addi	a5,a5,-1184 # 800418e <__sseek>
 8003636:	d45c                	sw	a5,44(s0)
 8003638:	00001797          	auipc	a5,0x1
 800363c:	b8a78793          	addi	a5,a5,-1142 # 80041c2 <__sclose>
 8003640:	40b2                	lw	ra,12(sp)
 8003642:	d000                	sw	s0,32(s0)
 8003644:	d81c                	sw	a5,48(s0)
 8003646:	4422                	lw	s0,8(sp)
 8003648:	0141                	addi	sp,sp,16
 800364a:	8082                	ret

0800364c <_cleanup_r>:
_cleanup_r():
 800364c:	00000597          	auipc	a1,0x0
 8003650:	f3258593          	addi	a1,a1,-206 # 800357e <_fflush_r>
 8003654:	aa81                	j	80037a4 <_fwalk_reent>

08003656 <__sfmoreglue>:
__sfmoreglue():
 8003656:	1141                	addi	sp,sp,-16
 8003658:	c226                	sw	s1,4(sp)
 800365a:	06800613          	li	a2,104
 800365e:	fff58493          	addi	s1,a1,-1
 8003662:	02c484b3          	mul	s1,s1,a2
 8003666:	c04a                	sw	s2,0(sp)
 8003668:	892e                	mv	s2,a1
 800366a:	c422                	sw	s0,8(sp)
 800366c:	c606                	sw	ra,12(sp)
 800366e:	07448593          	addi	a1,s1,116
 8003672:	2e2d                	jal	80039ac <_malloc_r>
 8003674:	842a                	mv	s0,a0
 8003676:	cd01                	beqz	a0,800368e <__sfmoreglue+0x38>
 8003678:	00052023          	sw	zero,0(a0)
 800367c:	01252223          	sw	s2,4(a0)
 8003680:	0531                	addi	a0,a0,12
 8003682:	c408                	sw	a0,8(s0)
 8003684:	06848613          	addi	a2,s1,104
 8003688:	4581                	li	a1,0
 800368a:	9b5ff0ef          	jal	ra,800303e <memset>
 800368e:	40b2                	lw	ra,12(sp)
 8003690:	8522                	mv	a0,s0
 8003692:	4422                	lw	s0,8(sp)
 8003694:	4492                	lw	s1,4(sp)
 8003696:	4902                	lw	s2,0(sp)
 8003698:	0141                	addi	sp,sp,16
 800369a:	8082                	ret

0800369c <__sinit>:
__sinit():
 800369c:	4d1c                	lw	a5,24(a0)
 800369e:	e3bd                	bnez	a5,8003704 <__sinit+0x68>
 80036a0:	1141                	addi	sp,sp,-16
 80036a2:	c422                	sw	s0,8(sp)
 80036a4:	c606                	sw	ra,12(sp)
 80036a6:	00000797          	auipc	a5,0x0
 80036aa:	fa678793          	addi	a5,a5,-90 # 800364c <_cleanup_r>
 80036ae:	d51c                	sw	a5,40(a0)
 80036b0:	04052423          	sw	zero,72(a0)
 80036b4:	04052623          	sw	zero,76(a0)
 80036b8:	04052823          	sw	zero,80(a0)
 80036bc:	00001797          	auipc	a5,0x1
 80036c0:	c487a783          	lw	a5,-952(a5) # 8004304 <_global_impure_ptr>
 80036c4:	842a                	mv	s0,a0
 80036c6:	00f51463          	bne	a0,a5,80036ce <__sinit+0x32>
 80036ca:	4785                	li	a5,1
 80036cc:	cd1c                	sw	a5,24(a0)
 80036ce:	8522                	mv	a0,s0
 80036d0:	281d                	jal	8003706 <__sfp>
 80036d2:	c048                	sw	a0,4(s0)
 80036d4:	8522                	mv	a0,s0
 80036d6:	2805                	jal	8003706 <__sfp>
 80036d8:	c408                	sw	a0,8(s0)
 80036da:	8522                	mv	a0,s0
 80036dc:	202d                	jal	8003706 <__sfp>
 80036de:	c448                	sw	a0,12(s0)
 80036e0:	4048                	lw	a0,4(s0)
 80036e2:	4601                	li	a2,0
 80036e4:	4591                	li	a1,4
 80036e6:	3df5                	jal	80035e2 <std>
 80036e8:	4408                	lw	a0,8(s0)
 80036ea:	4605                	li	a2,1
 80036ec:	45a5                	li	a1,9
 80036ee:	3dd5                	jal	80035e2 <std>
 80036f0:	4448                	lw	a0,12(s0)
 80036f2:	4609                	li	a2,2
 80036f4:	45c9                	li	a1,18
 80036f6:	35f5                	jal	80035e2 <std>
 80036f8:	4785                	li	a5,1
 80036fa:	40b2                	lw	ra,12(sp)
 80036fc:	cc1c                	sw	a5,24(s0)
 80036fe:	4422                	lw	s0,8(sp)
 8003700:	0141                	addi	sp,sp,16
 8003702:	8082                	ret
 8003704:	8082                	ret

08003706 <__sfp>:
__sfp():
 8003706:	1141                	addi	sp,sp,-16
 8003708:	c226                	sw	s1,4(sp)
 800370a:	00001497          	auipc	s1,0x1
 800370e:	bfa4a483          	lw	s1,-1030(s1) # 8004304 <_global_impure_ptr>
 8003712:	4c9c                	lw	a5,24(s1)
 8003714:	c04a                	sw	s2,0(sp)
 8003716:	c606                	sw	ra,12(sp)
 8003718:	c422                	sw	s0,8(sp)
 800371a:	892a                	mv	s2,a0
 800371c:	e399                	bnez	a5,8003722 <__sfp+0x1c>
 800371e:	8526                	mv	a0,s1
 8003720:	3fb5                	jal	800369c <__sinit>
 8003722:	04848493          	addi	s1,s1,72
 8003726:	4480                	lw	s0,8(s1)
 8003728:	40dc                	lw	a5,4(s1)
 800372a:	17fd                	addi	a5,a5,-1
 800372c:	0007d663          	bgez	a5,8003738 <__sfp+0x32>
 8003730:	409c                	lw	a5,0(s1)
 8003732:	cfb9                	beqz	a5,8003790 <__sfp+0x8a>
 8003734:	4084                	lw	s1,0(s1)
 8003736:	bfc5                	j	8003726 <__sfp+0x20>
 8003738:	00c41703          	lh	a4,12(s0)
 800373c:	e739                	bnez	a4,800378a <__sfp+0x84>
 800373e:	77c1                	lui	a5,0xffff0
 8003740:	0785                	addi	a5,a5,1
 8003742:	06042223          	sw	zero,100(s0)
 8003746:	00042023          	sw	zero,0(s0)
 800374a:	00042223          	sw	zero,4(s0)
 800374e:	00042423          	sw	zero,8(s0)
 8003752:	c45c                	sw	a5,12(s0)
 8003754:	00042823          	sw	zero,16(s0)
 8003758:	00042a23          	sw	zero,20(s0)
 800375c:	00042c23          	sw	zero,24(s0)
 8003760:	4621                	li	a2,8
 8003762:	4581                	li	a1,0
 8003764:	05c40513          	addi	a0,s0,92
 8003768:	8d7ff0ef          	jal	ra,800303e <memset>
 800376c:	02042a23          	sw	zero,52(s0)
 8003770:	02042c23          	sw	zero,56(s0)
 8003774:	04042423          	sw	zero,72(s0)
 8003778:	04042623          	sw	zero,76(s0)
 800377c:	40b2                	lw	ra,12(sp)
 800377e:	8522                	mv	a0,s0
 8003780:	4422                	lw	s0,8(sp)
 8003782:	4492                	lw	s1,4(sp)
 8003784:	4902                	lw	s2,0(sp)
 8003786:	0141                	addi	sp,sp,16
 8003788:	8082                	ret
 800378a:	06840413          	addi	s0,s0,104
 800378e:	bf71                	j	800372a <__sfp+0x24>
 8003790:	4591                	li	a1,4
 8003792:	854a                	mv	a0,s2
 8003794:	35c9                	jal	8003656 <__sfmoreglue>
 8003796:	c088                	sw	a0,0(s1)
 8003798:	842a                	mv	s0,a0
 800379a:	fd49                	bnez	a0,8003734 <__sfp+0x2e>
 800379c:	47b1                	li	a5,12
 800379e:	00f92023          	sw	a5,0(s2)
 80037a2:	bfe9                	j	800377c <__sfp+0x76>

080037a4 <_fwalk_reent>:
_fwalk_reent():
 80037a4:	7179                	addi	sp,sp,-48
 80037a6:	d422                	sw	s0,40(sp)
 80037a8:	d04a                	sw	s2,32(sp)
 80037aa:	ce4e                	sw	s3,28(sp)
 80037ac:	cc52                	sw	s4,24(sp)
 80037ae:	c85a                	sw	s6,16(sp)
 80037b0:	c65e                	sw	s7,12(sp)
 80037b2:	d606                	sw	ra,44(sp)
 80037b4:	d226                	sw	s1,36(sp)
 80037b6:	ca56                	sw	s5,20(sp)
 80037b8:	892a                	mv	s2,a0
 80037ba:	8a2e                	mv	s4,a1
 80037bc:	04850413          	addi	s0,a0,72
 80037c0:	4981                	li	s3,0
 80037c2:	4b05                	li	s6,1
 80037c4:	5bfd                	li	s7,-1
 80037c6:	4404                	lw	s1,8(s0)
 80037c8:	00442a83          	lw	s5,4(s0)
 80037cc:	1afd                	addi	s5,s5,-1
 80037ce:	020ad063          	bgez	s5,80037ee <_fwalk_reent+0x4a>
 80037d2:	4000                	lw	s0,0(s0)
 80037d4:	f86d                	bnez	s0,80037c6 <_fwalk_reent+0x22>
 80037d6:	50b2                	lw	ra,44(sp)
 80037d8:	5422                	lw	s0,40(sp)
 80037da:	5492                	lw	s1,36(sp)
 80037dc:	5902                	lw	s2,32(sp)
 80037de:	4a62                	lw	s4,24(sp)
 80037e0:	4ad2                	lw	s5,20(sp)
 80037e2:	4b42                	lw	s6,16(sp)
 80037e4:	4bb2                	lw	s7,12(sp)
 80037e6:	854e                	mv	a0,s3
 80037e8:	49f2                	lw	s3,28(sp)
 80037ea:	6145                	addi	sp,sp,48
 80037ec:	8082                	ret
 80037ee:	00c4d783          	lhu	a5,12(s1)
 80037f2:	00fb7b63          	bgeu	s6,a5,8003808 <_fwalk_reent+0x64>
 80037f6:	00e49783          	lh	a5,14(s1)
 80037fa:	01778763          	beq	a5,s7,8003808 <_fwalk_reent+0x64>
 80037fe:	85a6                	mv	a1,s1
 8003800:	854a                	mv	a0,s2
 8003802:	9a02                	jalr	s4
 8003804:	00a9e9b3          	or	s3,s3,a0
 8003808:	06848493          	addi	s1,s1,104
 800380c:	b7c1                	j	80037cc <_fwalk_reent+0x28>

0800380e <__swhatbuf_r>:
__swhatbuf_r():
 800380e:	7159                	addi	sp,sp,-112
 8003810:	d4a2                	sw	s0,104(sp)
 8003812:	d2a6                	sw	s1,100(sp)
 8003814:	d0ca                	sw	s2,96(sp)
 8003816:	d686                	sw	ra,108(sp)
 8003818:	892e                	mv	s2,a1
 800381a:	8432                	mv	s0,a2
 800381c:	84b6                	mv	s1,a3
 800381e:	00e59583          	lh	a1,14(a1)
 8003822:	0005dc63          	bgez	a1,800383a <__swhatbuf_r+0x2c>
 8003826:	00c91783          	lh	a5,12(s2)
 800382a:	0004a023          	sw	zero,0(s1)
 800382e:	0807f793          	andi	a5,a5,128
 8003832:	e395                	bnez	a5,8003856 <__swhatbuf_r+0x48>
 8003834:	40000793          	li	a5,1024
 8003838:	a00d                	j	800385a <__swhatbuf_r+0x4c>
 800383a:	0030                	addi	a2,sp,8
 800383c:	1e1000ef          	jal	ra,800421c <_fstat_r>
 8003840:	fe0543e3          	bltz	a0,8003826 <__swhatbuf_r+0x18>
 8003844:	4732                	lw	a4,12(sp)
 8003846:	67bd                	lui	a5,0xf
 8003848:	8ff9                	and	a5,a5,a4
 800384a:	7779                	lui	a4,0xffffe
 800384c:	97ba                	add	a5,a5,a4
 800384e:	0017b793          	seqz	a5,a5
 8003852:	c09c                	sw	a5,0(s1)
 8003854:	b7c5                	j	8003834 <__swhatbuf_r+0x26>
 8003856:	04000793          	li	a5,64
 800385a:	50b6                	lw	ra,108(sp)
 800385c:	c01c                	sw	a5,0(s0)
 800385e:	5426                	lw	s0,104(sp)
 8003860:	5496                	lw	s1,100(sp)
 8003862:	5906                	lw	s2,96(sp)
 8003864:	4501                	li	a0,0
 8003866:	6165                	addi	sp,sp,112
 8003868:	8082                	ret

0800386a <__smakebuf_r>:
__smakebuf_r():
 800386a:	00c5d783          	lhu	a5,12(a1)
 800386e:	1101                	addi	sp,sp,-32
 8003870:	cc22                	sw	s0,24(sp)
 8003872:	ce06                	sw	ra,28(sp)
 8003874:	ca26                	sw	s1,20(sp)
 8003876:	c84a                	sw	s2,16(sp)
 8003878:	8b89                	andi	a5,a5,2
 800387a:	842e                	mv	s0,a1
 800387c:	cf89                	beqz	a5,8003896 <__smakebuf_r+0x2c>
 800387e:	04740793          	addi	a5,s0,71
 8003882:	c01c                	sw	a5,0(s0)
 8003884:	c81c                	sw	a5,16(s0)
 8003886:	4785                	li	a5,1
 8003888:	c85c                	sw	a5,20(s0)
 800388a:	40f2                	lw	ra,28(sp)
 800388c:	4462                	lw	s0,24(sp)
 800388e:	44d2                	lw	s1,20(sp)
 8003890:	4942                	lw	s2,16(sp)
 8003892:	6105                	addi	sp,sp,32
 8003894:	8082                	ret
 8003896:	0074                	addi	a3,sp,12
 8003898:	0030                	addi	a2,sp,8
 800389a:	892a                	mv	s2,a0
 800389c:	3f8d                	jal	800380e <__swhatbuf_r>
 800389e:	45a2                	lw	a1,8(sp)
 80038a0:	84aa                	mv	s1,a0
 80038a2:	854a                	mv	a0,s2
 80038a4:	2221                	jal	80039ac <_malloc_r>
 80038a6:	00c45783          	lhu	a5,12(s0)
 80038aa:	ed09                	bnez	a0,80038c4 <__smakebuf_r+0x5a>
 80038ac:	60579713          	sext.h	a4,a5
 80038b0:	2007f793          	andi	a5,a5,512
 80038b4:	fbf9                	bnez	a5,800388a <__smakebuf_r+0x20>
 80038b6:	ffc77793          	andi	a5,a4,-4
 80038ba:	0027e793          	ori	a5,a5,2
 80038be:	00f41623          	sh	a5,12(s0)
 80038c2:	bf75                	j	800387e <__smakebuf_r+0x14>
 80038c4:	00000717          	auipc	a4,0x0
 80038c8:	d8870713          	addi	a4,a4,-632 # 800364c <_cleanup_r>
 80038cc:	02e92423          	sw	a4,40(s2)
 80038d0:	0807e793          	ori	a5,a5,128
 80038d4:	00f41623          	sh	a5,12(s0)
 80038d8:	47a2                	lw	a5,8(sp)
 80038da:	c008                	sw	a0,0(s0)
 80038dc:	c808                	sw	a0,16(s0)
 80038de:	c85c                	sw	a5,20(s0)
 80038e0:	47b2                	lw	a5,12(sp)
 80038e2:	cf91                	beqz	a5,80038fe <__smakebuf_r+0x94>
 80038e4:	854a                	mv	a0,s2
 80038e6:	00e41583          	lh	a1,14(s0)
 80038ea:	15d000ef          	jal	ra,8004246 <_isatty_r>
 80038ee:	c901                	beqz	a0,80038fe <__smakebuf_r+0x94>
 80038f0:	00c45783          	lhu	a5,12(s0)
 80038f4:	9bf1                	andi	a5,a5,-4
 80038f6:	0017e793          	ori	a5,a5,1
 80038fa:	00f41623          	sh	a5,12(s0)
 80038fe:	00c45503          	lhu	a0,12(s0)
 8003902:	8cc9                	or	s1,s1,a0
 8003904:	00941623          	sh	s1,12(s0)
 8003908:	b749                	j	800388a <__smakebuf_r+0x20>

0800390a <_free_r>:
_free_r():
 800390a:	c1c5                	beqz	a1,80039aa <_free_r+0xa0>
 800390c:	ffc5a783          	lw	a5,-4(a1)
 8003910:	1101                	addi	sp,sp,-32
 8003912:	cc22                	sw	s0,24(sp)
 8003914:	ce06                	sw	ra,28(sp)
 8003916:	ffc58413          	addi	s0,a1,-4
 800391a:	0007d363          	bgez	a5,8003920 <_free_r+0x16>
 800391e:	943e                	add	s0,s0,a5
 8003920:	c62a                	sw	a0,12(sp)
 8003922:	193000ef          	jal	ra,80042b4 <__malloc_lock>
 8003926:	9e418713          	addi	a4,gp,-1564 # 20000544 <__malloc_free_list>
 800392a:	431c                	lw	a5,0(a4)
 800392c:	4532                	lw	a0,12(sp)
 800392e:	eb89                	bnez	a5,8003940 <_free_r+0x36>
 8003930:	00042223          	sw	zero,4(s0)
 8003934:	c300                	sw	s0,0(a4)
 8003936:	4462                	lw	s0,24(sp)
 8003938:	40f2                	lw	ra,28(sp)
 800393a:	6105                	addi	sp,sp,32
 800393c:	17b0006f          	j	80042b6 <__malloc_unlock>
 8003940:	00f47d63          	bgeu	s0,a5,800395a <_free_r+0x50>
 8003944:	4010                	lw	a2,0(s0)
 8003946:	00c406b3          	add	a3,s0,a2
 800394a:	00d79663          	bne	a5,a3,8003956 <_free_r+0x4c>
 800394e:	4394                	lw	a3,0(a5)
 8003950:	43dc                	lw	a5,4(a5)
 8003952:	96b2                	add	a3,a3,a2
 8003954:	c014                	sw	a3,0(s0)
 8003956:	c05c                	sw	a5,4(s0)
 8003958:	bff1                	j	8003934 <_free_r+0x2a>
 800395a:	873e                	mv	a4,a5
 800395c:	43dc                	lw	a5,4(a5)
 800395e:	c399                	beqz	a5,8003964 <_free_r+0x5a>
 8003960:	fef47de3          	bgeu	s0,a5,800395a <_free_r+0x50>
 8003964:	4314                	lw	a3,0(a4)
 8003966:	00d70633          	add	a2,a4,a3
 800396a:	00861f63          	bne	a2,s0,8003988 <_free_r+0x7e>
 800396e:	4010                	lw	a2,0(s0)
 8003970:	96b2                	add	a3,a3,a2
 8003972:	c314                	sw	a3,0(a4)
 8003974:	00d70633          	add	a2,a4,a3
 8003978:	fac79fe3          	bne	a5,a2,8003936 <_free_r+0x2c>
 800397c:	4390                	lw	a2,0(a5)
 800397e:	43dc                	lw	a5,4(a5)
 8003980:	96b2                	add	a3,a3,a2
 8003982:	c314                	sw	a3,0(a4)
 8003984:	c35c                	sw	a5,4(a4)
 8003986:	bf45                	j	8003936 <_free_r+0x2c>
 8003988:	00c47563          	bgeu	s0,a2,8003992 <_free_r+0x88>
 800398c:	47b1                	li	a5,12
 800398e:	c11c                	sw	a5,0(a0)
 8003990:	b75d                	j	8003936 <_free_r+0x2c>
 8003992:	4010                	lw	a2,0(s0)
 8003994:	00c406b3          	add	a3,s0,a2
 8003998:	00d79663          	bne	a5,a3,80039a4 <_free_r+0x9a>
 800399c:	4394                	lw	a3,0(a5)
 800399e:	43dc                	lw	a5,4(a5)
 80039a0:	96b2                	add	a3,a3,a2
 80039a2:	c014                	sw	a3,0(s0)
 80039a4:	c05c                	sw	a5,4(s0)
 80039a6:	c340                	sw	s0,4(a4)
 80039a8:	b779                	j	8003936 <_free_r+0x2c>
 80039aa:	8082                	ret

080039ac <_malloc_r>:
_malloc_r():
 80039ac:	1101                	addi	sp,sp,-32
 80039ae:	ca26                	sw	s1,20(sp)
 80039b0:	00358493          	addi	s1,a1,3
 80039b4:	98f1                	andi	s1,s1,-4
 80039b6:	c84a                	sw	s2,16(sp)
 80039b8:	04a1                	addi	s1,s1,8
 80039ba:	47b1                	li	a5,12
 80039bc:	ce06                	sw	ra,28(sp)
 80039be:	cc22                	sw	s0,24(sp)
 80039c0:	c64e                	sw	s3,12(sp)
 80039c2:	892a                	mv	s2,a0
 80039c4:	0af4f4b3          	maxu	s1,s1,a5
 80039c8:	0004c463          	bltz	s1,80039d0 <_malloc_r+0x24>
 80039cc:	00b4fd63          	bgeu	s1,a1,80039e6 <_malloc_r+0x3a>
 80039d0:	47b1                	li	a5,12
 80039d2:	00f92023          	sw	a5,0(s2)
 80039d6:	4501                	li	a0,0
 80039d8:	40f2                	lw	ra,28(sp)
 80039da:	4462                	lw	s0,24(sp)
 80039dc:	44d2                	lw	s1,20(sp)
 80039de:	4942                	lw	s2,16(sp)
 80039e0:	49b2                	lw	s3,12(sp)
 80039e2:	6105                	addi	sp,sp,32
 80039e4:	8082                	ret
 80039e6:	0cf000ef          	jal	ra,80042b4 <__malloc_lock>
 80039ea:	9e418693          	addi	a3,gp,-1564 # 20000544 <__malloc_free_list>
 80039ee:	4298                	lw	a4,0(a3)
 80039f0:	843a                	mv	s0,a4
 80039f2:	e415                	bnez	s0,8003a1e <_malloc_r+0x72>
 80039f4:	9e818413          	addi	s0,gp,-1560 # 20000548 <__malloc_sbrk_start>
 80039f8:	401c                	lw	a5,0(s0)
 80039fa:	e789                	bnez	a5,8003a04 <_malloc_r+0x58>
 80039fc:	4581                	li	a1,0
 80039fe:	854a                	mv	a0,s2
 8003a00:	25fd                	jal	80040ee <_sbrk_r>
 8003a02:	c008                	sw	a0,0(s0)
 8003a04:	85a6                	mv	a1,s1
 8003a06:	854a                	mv	a0,s2
 8003a08:	25dd                	jal	80040ee <_sbrk_r>
 8003a0a:	59fd                	li	s3,-1
 8003a0c:	05351d63          	bne	a0,s3,8003a66 <_malloc_r+0xba>
 8003a10:	47b1                	li	a5,12
 8003a12:	00f92023          	sw	a5,0(s2)
 8003a16:	854a                	mv	a0,s2
 8003a18:	09f000ef          	jal	ra,80042b6 <__malloc_unlock>
 8003a1c:	bf6d                	j	80039d6 <_malloc_r+0x2a>
 8003a1e:	401c                	lw	a5,0(s0)
 8003a20:	8f85                	sub	a5,a5,s1
 8003a22:	0207cf63          	bltz	a5,8003a60 <_malloc_r+0xb4>
 8003a26:	462d                	li	a2,11
 8003a28:	00f67663          	bgeu	a2,a5,8003a34 <_malloc_r+0x88>
 8003a2c:	c01c                	sw	a5,0(s0)
 8003a2e:	943e                	add	s0,s0,a5
 8003a30:	c004                	sw	s1,0(s0)
 8003a32:	a029                	j	8003a3c <_malloc_r+0x90>
 8003a34:	405c                	lw	a5,4(s0)
 8003a36:	02871363          	bne	a4,s0,8003a5c <_malloc_r+0xb0>
 8003a3a:	c29c                	sw	a5,0(a3)
 8003a3c:	854a                	mv	a0,s2
 8003a3e:	079000ef          	jal	ra,80042b6 <__malloc_unlock>
 8003a42:	00b40513          	addi	a0,s0,11
 8003a46:	00440793          	addi	a5,s0,4
 8003a4a:	9961                	andi	a0,a0,-8
 8003a4c:	40f50733          	sub	a4,a0,a5
 8003a50:	f8f504e3          	beq	a0,a5,80039d8 <_malloc_r+0x2c>
 8003a54:	943a                	add	s0,s0,a4
 8003a56:	8f89                	sub	a5,a5,a0
 8003a58:	c01c                	sw	a5,0(s0)
 8003a5a:	bfbd                	j	80039d8 <_malloc_r+0x2c>
 8003a5c:	c35c                	sw	a5,4(a4)
 8003a5e:	bff9                	j	8003a3c <_malloc_r+0x90>
 8003a60:	8722                	mv	a4,s0
 8003a62:	4040                	lw	s0,4(s0)
 8003a64:	b779                	j	80039f2 <_malloc_r+0x46>
 8003a66:	00350413          	addi	s0,a0,3
 8003a6a:	9871                	andi	s0,s0,-4
 8003a6c:	fc8502e3          	beq	a0,s0,8003a30 <_malloc_r+0x84>
 8003a70:	40a405b3          	sub	a1,s0,a0
 8003a74:	854a                	mv	a0,s2
 8003a76:	2da5                	jal	80040ee <_sbrk_r>
 8003a78:	fb351ce3          	bne	a0,s3,8003a30 <_malloc_r+0x84>
 8003a7c:	bf51                	j	8003a10 <_malloc_r+0x64>

08003a7e <__sfputc_r>:
__sfputc_r():
 8003a7e:	461c                	lw	a5,8(a2)
 8003a80:	17fd                	addi	a5,a5,-1
 8003a82:	c61c                	sw	a5,8(a2)
 8003a84:	0007da63          	bgez	a5,8003a98 <__sfputc_r+0x1a>
 8003a88:	4e18                	lw	a4,24(a2)
 8003a8a:	00e7c563          	blt	a5,a4,8003a94 <__sfputc_r+0x16>
 8003a8e:	47a9                	li	a5,10
 8003a90:	00f59463          	bne	a1,a5,8003a98 <__sfputc_r+0x1a>
 8003a94:	f76ff06f          	j	800320a <__swbuf_r>
 8003a98:	421c                	lw	a5,0(a2)
 8003a9a:	852e                	mv	a0,a1
 8003a9c:	00178713          	addi	a4,a5,1 # f001 <__stack_size+0xe001>
 8003aa0:	c218                	sw	a4,0(a2)
 8003aa2:	00b78023          	sb	a1,0(a5)
 8003aa6:	8082                	ret

08003aa8 <__sfputs_r>:
__sfputs_r():
 8003aa8:	1101                	addi	sp,sp,-32
 8003aaa:	cc22                	sw	s0,24(sp)
 8003aac:	ca26                	sw	s1,20(sp)
 8003aae:	c84a                	sw	s2,16(sp)
 8003ab0:	c64e                	sw	s3,12(sp)
 8003ab2:	c452                	sw	s4,8(sp)
 8003ab4:	ce06                	sw	ra,28(sp)
 8003ab6:	892a                	mv	s2,a0
 8003ab8:	89ae                	mv	s3,a1
 8003aba:	8432                	mv	s0,a2
 8003abc:	00d604b3          	add	s1,a2,a3
 8003ac0:	5a7d                	li	s4,-1
 8003ac2:	00941463          	bne	s0,s1,8003aca <__sfputs_r+0x22>
 8003ac6:	4501                	li	a0,0
 8003ac8:	a809                	j	8003ada <__sfputs_r+0x32>
 8003aca:	00044583          	lbu	a1,0(s0)
 8003ace:	864e                	mv	a2,s3
 8003ad0:	854a                	mv	a0,s2
 8003ad2:	3775                	jal	8003a7e <__sfputc_r>
 8003ad4:	0405                	addi	s0,s0,1
 8003ad6:	ff4516e3          	bne	a0,s4,8003ac2 <__sfputs_r+0x1a>
 8003ada:	40f2                	lw	ra,28(sp)
 8003adc:	4462                	lw	s0,24(sp)
 8003ade:	44d2                	lw	s1,20(sp)
 8003ae0:	4942                	lw	s2,16(sp)
 8003ae2:	49b2                	lw	s3,12(sp)
 8003ae4:	4a22                	lw	s4,8(sp)
 8003ae6:	6105                	addi	sp,sp,32
 8003ae8:	8082                	ret

08003aea <_vfiprintf_r>:
_vfiprintf_r():
 8003aea:	7135                	addi	sp,sp,-160
 8003aec:	cd22                	sw	s0,152(sp)
 8003aee:	cb26                	sw	s1,148(sp)
 8003af0:	c94a                	sw	s2,144(sp)
 8003af2:	c74e                	sw	s3,140(sp)
 8003af4:	cf06                	sw	ra,156(sp)
 8003af6:	c552                	sw	s4,136(sp)
 8003af8:	c356                	sw	s5,132(sp)
 8003afa:	c15a                	sw	s6,128(sp)
 8003afc:	dede                	sw	s7,124(sp)
 8003afe:	dce2                	sw	s8,120(sp)
 8003b00:	89aa                	mv	s3,a0
 8003b02:	84ae                	mv	s1,a1
 8003b04:	8932                	mv	s2,a2
 8003b06:	8436                	mv	s0,a3
 8003b08:	c509                	beqz	a0,8003b12 <_vfiprintf_r+0x28>
 8003b0a:	4d1c                	lw	a5,24(a0)
 8003b0c:	e399                	bnez	a5,8003b12 <_vfiprintf_r+0x28>
 8003b0e:	b8fff0ef          	jal	ra,800369c <__sinit>
 8003b12:	ffffe797          	auipc	a5,0xffffe
 8003b16:	b5678793          	addi	a5,a5,-1194 # 8001668 <__sf_fake_stdin>
 8003b1a:	0cf49963          	bne	s1,a5,8003bec <_vfiprintf_r+0x102>
 8003b1e:	0049a483          	lw	s1,4(s3)
 8003b22:	00c4d783          	lhu	a5,12(s1)
 8003b26:	8ba1                	andi	a5,a5,8
 8003b28:	c7e5                	beqz	a5,8003c10 <_vfiprintf_r+0x126>
 8003b2a:	489c                	lw	a5,16(s1)
 8003b2c:	c3f5                	beqz	a5,8003c10 <_vfiprintf_r+0x126>
 8003b2e:	02000793          	li	a5,32
 8003b32:	02f104a3          	sb	a5,41(sp)
 8003b36:	03000793          	li	a5,48
 8003b3a:	d202                	sw	zero,36(sp)
 8003b3c:	02f10523          	sb	a5,42(sp)
 8003b40:	c622                	sw	s0,12(sp)
 8003b42:	02500b93          	li	s7,37
 8003b46:	ffffea97          	auipc	s5,0xffffe
 8003b4a:	b62a8a93          	addi	s5,s5,-1182 # 80016a8 <__sf_fake_stdout+0x20>
 8003b4e:	4b29                	li	s6,10
 8003b50:	844a                	mv	s0,s2
 8003b52:	00044783          	lbu	a5,0(s0)
 8003b56:	c399                	beqz	a5,8003b5c <_vfiprintf_r+0x72>
 8003b58:	0d779e63          	bne	a5,s7,8003c34 <_vfiprintf_r+0x14a>
 8003b5c:	41240c33          	sub	s8,s0,s2
 8003b60:	01240d63          	beq	s0,s2,8003b7a <_vfiprintf_r+0x90>
 8003b64:	86e2                	mv	a3,s8
 8003b66:	864a                	mv	a2,s2
 8003b68:	85a6                	mv	a1,s1
 8003b6a:	854e                	mv	a0,s3
 8003b6c:	3f35                	jal	8003aa8 <__sfputs_r>
 8003b6e:	57fd                	li	a5,-1
 8003b70:	1ef50263          	beq	a0,a5,8003d54 <_vfiprintf_r+0x26a>
 8003b74:	5792                	lw	a5,36(sp)
 8003b76:	97e2                	add	a5,a5,s8
 8003b78:	d23e                	sw	a5,36(sp)
 8003b7a:	00044783          	lbu	a5,0(s0)
 8003b7e:	1c078b63          	beqz	a5,8003d54 <_vfiprintf_r+0x26a>
 8003b82:	57fd                	li	a5,-1
 8003b84:	00140913          	addi	s2,s0,1
 8003b88:	c802                	sw	zero,16(sp)
 8003b8a:	ce02                	sw	zero,28(sp)
 8003b8c:	ca3e                	sw	a5,20(sp)
 8003b8e:	cc02                	sw	zero,24(sp)
 8003b90:	040109a3          	sb	zero,83(sp)
 8003b94:	d482                	sw	zero,104(sp)
 8003b96:	00094583          	lbu	a1,0(s2)
 8003b9a:	4615                	li	a2,5
 8003b9c:	8556                	mv	a0,s5
 8003b9e:	2df5                	jal	800429a <memchr>
 8003ba0:	47c2                	lw	a5,16(sp)
 8003ba2:	00190413          	addi	s0,s2,1
 8003ba6:	e949                	bnez	a0,8003c38 <_vfiprintf_r+0x14e>
 8003ba8:	0107f713          	andi	a4,a5,16
 8003bac:	c709                	beqz	a4,8003bb6 <_vfiprintf_r+0xcc>
 8003bae:	02000713          	li	a4,32
 8003bb2:	04e109a3          	sb	a4,83(sp)
 8003bb6:	0087f713          	andi	a4,a5,8
 8003bba:	c709                	beqz	a4,8003bc4 <_vfiprintf_r+0xda>
 8003bbc:	02b00713          	li	a4,43
 8003bc0:	04e109a3          	sb	a4,83(sp)
 8003bc4:	00094683          	lbu	a3,0(s2)
 8003bc8:	02a00713          	li	a4,42
 8003bcc:	06e68d63          	beq	a3,a4,8003c46 <_vfiprintf_r+0x15c>
 8003bd0:	4772                	lw	a4,28(sp)
 8003bd2:	844a                	mv	s0,s2
 8003bd4:	4681                	li	a3,0
 8003bd6:	4625                	li	a2,9
 8003bd8:	00044783          	lbu	a5,0(s0)
 8003bdc:	00140593          	addi	a1,s0,1
 8003be0:	fd078793          	addi	a5,a5,-48
 8003be4:	10f67663          	bgeu	a2,a5,8003cf0 <_vfiprintf_r+0x206>
 8003be8:	e6b5                	bnez	a3,8003c54 <_vfiprintf_r+0x16a>
 8003bea:	a8ad                	j	8003c64 <_vfiprintf_r+0x17a>
 8003bec:	ffffe797          	auipc	a5,0xffffe
 8003bf0:	a9c78793          	addi	a5,a5,-1380 # 8001688 <__sf_fake_stdout>
 8003bf4:	00f49563          	bne	s1,a5,8003bfe <_vfiprintf_r+0x114>
 8003bf8:	0089a483          	lw	s1,8(s3)
 8003bfc:	b71d                	j	8003b22 <_vfiprintf_r+0x38>
 8003bfe:	ffffe797          	auipc	a5,0xffffe
 8003c02:	a4a78793          	addi	a5,a5,-1462 # 8001648 <__sf_fake_stderr>
 8003c06:	f0f49ee3          	bne	s1,a5,8003b22 <_vfiprintf_r+0x38>
 8003c0a:	00c9a483          	lw	s1,12(s3)
 8003c0e:	bf11                	j	8003b22 <_vfiprintf_r+0x38>
 8003c10:	85a6                	mv	a1,s1
 8003c12:	854e                	mv	a0,s3
 8003c14:	eb6ff0ef          	jal	ra,80032ca <__swsetup_r>
 8003c18:	d919                	beqz	a0,8003b2e <_vfiprintf_r+0x44>
 8003c1a:	557d                	li	a0,-1
 8003c1c:	40fa                	lw	ra,156(sp)
 8003c1e:	446a                	lw	s0,152(sp)
 8003c20:	44da                	lw	s1,148(sp)
 8003c22:	494a                	lw	s2,144(sp)
 8003c24:	49ba                	lw	s3,140(sp)
 8003c26:	4a2a                	lw	s4,136(sp)
 8003c28:	4a9a                	lw	s5,132(sp)
 8003c2a:	4b0a                	lw	s6,128(sp)
 8003c2c:	5bf6                	lw	s7,124(sp)
 8003c2e:	5c66                	lw	s8,120(sp)
 8003c30:	610d                	addi	sp,sp,160
 8003c32:	8082                	ret
 8003c34:	0405                	addi	s0,s0,1
 8003c36:	bf31                	j	8003b52 <_vfiprintf_r+0x68>
 8003c38:	41550533          	sub	a0,a0,s5
 8003c3c:	28a797b3          	bset	a5,a5,a0
 8003c40:	8922                	mv	s2,s0
 8003c42:	c83e                	sw	a5,16(sp)
 8003c44:	bf89                	j	8003b96 <_vfiprintf_r+0xac>
 8003c46:	4732                	lw	a4,12(sp)
 8003c48:	00470693          	addi	a3,a4,4
 8003c4c:	4318                	lw	a4,0(a4)
 8003c4e:	c636                	sw	a3,12(sp)
 8003c50:	00074463          	bltz	a4,8003c58 <_vfiprintf_r+0x16e>
 8003c54:	ce3a                	sw	a4,28(sp)
 8003c56:	a039                	j	8003c64 <_vfiprintf_r+0x17a>
 8003c58:	40e00733          	neg	a4,a4
 8003c5c:	0027e793          	ori	a5,a5,2
 8003c60:	ce3a                	sw	a4,28(sp)
 8003c62:	c83e                	sw	a5,16(sp)
 8003c64:	00044703          	lbu	a4,0(s0)
 8003c68:	02e00793          	li	a5,46
 8003c6c:	02f71163          	bne	a4,a5,8003c8e <_vfiprintf_r+0x1a4>
 8003c70:	00144703          	lbu	a4,1(s0)
 8003c74:	02a00793          	li	a5,42
 8003c78:	08f71463          	bne	a4,a5,8003d00 <_vfiprintf_r+0x216>
 8003c7c:	47b2                	lw	a5,12(sp)
 8003c7e:	0409                	addi	s0,s0,2
 8003c80:	00478713          	addi	a4,a5,4
 8003c84:	439c                	lw	a5,0(a5)
 8003c86:	c63a                	sw	a4,12(sp)
 8003c88:	0607ca63          	bltz	a5,8003cfc <_vfiprintf_r+0x212>
 8003c8c:	ca3e                	sw	a5,20(sp)
 8003c8e:	00044583          	lbu	a1,0(s0)
 8003c92:	460d                	li	a2,3
 8003c94:	ffffe517          	auipc	a0,0xffffe
 8003c98:	a1c50513          	addi	a0,a0,-1508 # 80016b0 <__sf_fake_stdout+0x28>
 8003c9c:	2bfd                	jal	800429a <memchr>
 8003c9e:	cd11                	beqz	a0,8003cba <_vfiprintf_r+0x1d0>
 8003ca0:	ffffe797          	auipc	a5,0xffffe
 8003ca4:	a1078793          	addi	a5,a5,-1520 # 80016b0 <__sf_fake_stdout+0x28>
 8003ca8:	8d1d                	sub	a0,a0,a5
 8003caa:	04000793          	li	a5,64
 8003cae:	00a797b3          	sll	a5,a5,a0
 8003cb2:	4542                	lw	a0,16(sp)
 8003cb4:	0405                	addi	s0,s0,1
 8003cb6:	8d5d                	or	a0,a0,a5
 8003cb8:	c82a                	sw	a0,16(sp)
 8003cba:	00044583          	lbu	a1,0(s0)
 8003cbe:	4619                	li	a2,6
 8003cc0:	ffffe517          	auipc	a0,0xffffe
 8003cc4:	9f450513          	addi	a0,a0,-1548 # 80016b4 <__sf_fake_stdout+0x2c>
 8003cc8:	00140913          	addi	s2,s0,1
 8003ccc:	02b10423          	sb	a1,40(sp)
 8003cd0:	23e9                	jal	800429a <memchr>
 8003cd2:	c949                	beqz	a0,8003d64 <_vfiprintf_r+0x27a>
 8003cd4:	00000793          	li	a5,0
 8003cd8:	efb1                	bnez	a5,8003d34 <_vfiprintf_r+0x24a>
 8003cda:	4742                	lw	a4,16(sp)
 8003cdc:	47b2                	lw	a5,12(sp)
 8003cde:	10077713          	andi	a4,a4,256
 8003ce2:	c729                	beqz	a4,8003d2c <_vfiprintf_r+0x242>
 8003ce4:	0791                	addi	a5,a5,4
 8003ce6:	c63e                	sw	a5,12(sp)
 8003ce8:	5792                	lw	a5,36(sp)
 8003cea:	97d2                	add	a5,a5,s4
 8003cec:	d23e                	sw	a5,36(sp)
 8003cee:	b58d                	j	8003b50 <_vfiprintf_r+0x66>
 8003cf0:	c56717ff          	maddr32	a5,a4,s6
 8003cf4:	842e                	mv	s0,a1
 8003cf6:	873e                	mv	a4,a5
 8003cf8:	4685                	li	a3,1
 8003cfa:	bdf9                	j	8003bd8 <_vfiprintf_r+0xee>
 8003cfc:	57fd                	li	a5,-1
 8003cfe:	b779                	j	8003c8c <_vfiprintf_r+0x1a2>
 8003d00:	0405                	addi	s0,s0,1
 8003d02:	ca02                	sw	zero,20(sp)
 8003d04:	4681                	li	a3,0
 8003d06:	4701                	li	a4,0
 8003d08:	4625                	li	a2,9
 8003d0a:	00044783          	lbu	a5,0(s0)
 8003d0e:	00140593          	addi	a1,s0,1
 8003d12:	fd078793          	addi	a5,a5,-48
 8003d16:	00f67563          	bgeu	a2,a5,8003d20 <_vfiprintf_r+0x236>
 8003d1a:	dab5                	beqz	a3,8003c8e <_vfiprintf_r+0x1a4>
 8003d1c:	ca3a                	sw	a4,20(sp)
 8003d1e:	bf85                	j	8003c8e <_vfiprintf_r+0x1a4>
 8003d20:	c56717ff          	maddr32	a5,a4,s6
 8003d24:	842e                	mv	s0,a1
 8003d26:	873e                	mv	a4,a5
 8003d28:	4685                	li	a3,1
 8003d2a:	b7c5                	j	8003d0a <_vfiprintf_r+0x220>
 8003d2c:	079d                	addi	a5,a5,7
 8003d2e:	9be1                	andi	a5,a5,-8
 8003d30:	07a1                	addi	a5,a5,8
 8003d32:	bf55                	j	8003ce6 <_vfiprintf_r+0x1fc>
 8003d34:	0078                	addi	a4,sp,12
 8003d36:	00000697          	auipc	a3,0x0
 8003d3a:	d7268693          	addi	a3,a3,-654 # 8003aa8 <__sfputs_r>
 8003d3e:	8626                	mv	a2,s1
 8003d40:	080c                	addi	a1,sp,16
 8003d42:	854e                	mv	a0,s3
 8003d44:	00000097          	auipc	ra,0x0
 8003d48:	000000e7          	jalr	zero # 0 <__stack_size-0x1000>
 8003d4c:	57fd                	li	a5,-1
 8003d4e:	8a2a                	mv	s4,a0
 8003d50:	f8f51ce3          	bne	a0,a5,8003ce8 <_vfiprintf_r+0x1fe>
 8003d54:	00c4d783          	lhu	a5,12(s1)
 8003d58:	0407f793          	andi	a5,a5,64
 8003d5c:	ea079fe3          	bnez	a5,8003c1a <_vfiprintf_r+0x130>
 8003d60:	5512                	lw	a0,36(sp)
 8003d62:	bd6d                	j	8003c1c <_vfiprintf_r+0x132>
 8003d64:	0078                	addi	a4,sp,12
 8003d66:	00000697          	auipc	a3,0x0
 8003d6a:	d4268693          	addi	a3,a3,-702 # 8003aa8 <__sfputs_r>
 8003d6e:	8626                	mv	a2,s1
 8003d70:	080c                	addi	a1,sp,16
 8003d72:	854e                	mv	a0,s3
 8003d74:	2239                	jal	8003e82 <_printf_i>
 8003d76:	bfd9                	j	8003d4c <_vfiprintf_r+0x262>

08003d78 <_printf_common>:
_printf_common():
 8003d78:	7179                	addi	sp,sp,-48
 8003d7a:	cc52                	sw	s4,24(sp)
 8003d7c:	499c                	lw	a5,16(a1)
 8003d7e:	8a3a                	mv	s4,a4
 8003d80:	4598                	lw	a4,8(a1)
 8003d82:	d422                	sw	s0,40(sp)
 8003d84:	d226                	sw	s1,36(sp)
 8003d86:	ce4e                	sw	s3,28(sp)
 8003d88:	ca56                	sw	s5,20(sp)
 8003d8a:	d606                	sw	ra,44(sp)
 8003d8c:	d04a                	sw	s2,32(sp)
 8003d8e:	c85a                	sw	s6,16(sp)
 8003d90:	c65e                	sw	s7,12(sp)
 8003d92:	0ae7e7b3          	max	a5,a5,a4
 8003d96:	c21c                	sw	a5,0(a2)
 8003d98:	0435c703          	lbu	a4,67(a1)
 8003d9c:	89aa                	mv	s3,a0
 8003d9e:	842e                	mv	s0,a1
 8003da0:	84b2                	mv	s1,a2
 8003da2:	8ab6                	mv	s5,a3
 8003da4:	c319                	beqz	a4,8003daa <_printf_common+0x32>
 8003da6:	0785                	addi	a5,a5,1
 8003da8:	c21c                	sw	a5,0(a2)
 8003daa:	401c                	lw	a5,0(s0)
 8003dac:	0207f793          	andi	a5,a5,32
 8003db0:	c781                	beqz	a5,8003db8 <_printf_common+0x40>
 8003db2:	409c                	lw	a5,0(s1)
 8003db4:	0789                	addi	a5,a5,2
 8003db6:	c09c                	sw	a5,0(s1)
 8003db8:	00042903          	lw	s2,0(s0)
 8003dbc:	00697913          	andi	s2,s2,6
 8003dc0:	00091a63          	bnez	s2,8003dd4 <_printf_common+0x5c>
 8003dc4:	01940b13          	addi	s6,s0,25
 8003dc8:	5bfd                	li	s7,-1
 8003dca:	445c                	lw	a5,12(s0)
 8003dcc:	4098                	lw	a4,0(s1)
 8003dce:	8f99                	sub	a5,a5,a4
 8003dd0:	04f94c63          	blt	s2,a5,8003e28 <_printf_common+0xb0>
 8003dd4:	04344783          	lbu	a5,67(s0)
 8003dd8:	00f036b3          	snez	a3,a5
 8003ddc:	401c                	lw	a5,0(s0)
 8003dde:	0207f793          	andi	a5,a5,32
 8003de2:	eba5                	bnez	a5,8003e52 <_printf_common+0xda>
 8003de4:	04340613          	addi	a2,s0,67
 8003de8:	85d6                	mv	a1,s5
 8003dea:	854e                	mv	a0,s3
 8003dec:	9a02                	jalr	s4
 8003dee:	57fd                	li	a5,-1
 8003df0:	04f50363          	beq	a0,a5,8003e36 <_printf_common+0xbe>
 8003df4:	401c                	lw	a5,0(s0)
 8003df6:	4611                	li	a2,4
 8003df8:	4098                	lw	a4,0(s1)
 8003dfa:	8b99                	andi	a5,a5,6
 8003dfc:	4454                	lw	a3,12(s0)
 8003dfe:	4481                	li	s1,0
 8003e00:	00c79763          	bne	a5,a2,8003e0e <_printf_common+0x96>
 8003e04:	40e684b3          	sub	s1,a3,a4
 8003e08:	4781                	li	a5,0
 8003e0a:	0af4e4b3          	max	s1,s1,a5
 8003e0e:	441c                	lw	a5,8(s0)
 8003e10:	4818                	lw	a4,16(s0)
 8003e12:	00f75463          	bge	a4,a5,8003e1a <_printf_common+0xa2>
 8003e16:	8f99                	sub	a5,a5,a4
 8003e18:	94be                	add	s1,s1,a5
 8003e1a:	4901                	li	s2,0
 8003e1c:	0469                	addi	s0,s0,26
 8003e1e:	5b7d                	li	s6,-1
 8003e20:	05249863          	bne	s1,s2,8003e70 <_printf_common+0xf8>
 8003e24:	4501                	li	a0,0
 8003e26:	a809                	j	8003e38 <_printf_common+0xc0>
 8003e28:	4685                	li	a3,1
 8003e2a:	865a                	mv	a2,s6
 8003e2c:	85d6                	mv	a1,s5
 8003e2e:	854e                	mv	a0,s3
 8003e30:	9a02                	jalr	s4
 8003e32:	01751e63          	bne	a0,s7,8003e4e <_printf_common+0xd6>
 8003e36:	557d                	li	a0,-1
 8003e38:	50b2                	lw	ra,44(sp)
 8003e3a:	5422                	lw	s0,40(sp)
 8003e3c:	5492                	lw	s1,36(sp)
 8003e3e:	5902                	lw	s2,32(sp)
 8003e40:	49f2                	lw	s3,28(sp)
 8003e42:	4a62                	lw	s4,24(sp)
 8003e44:	4ad2                	lw	s5,20(sp)
 8003e46:	4b42                	lw	s6,16(sp)
 8003e48:	4bb2                	lw	s7,12(sp)
 8003e4a:	6145                	addi	sp,sp,48
 8003e4c:	8082                	ret
 8003e4e:	0905                	addi	s2,s2,1
 8003e50:	bfad                	j	8003dca <_printf_common+0x52>
 8003e52:	00d40733          	add	a4,s0,a3
 8003e56:	03000613          	li	a2,48
 8003e5a:	04c701a3          	sb	a2,67(a4)
 8003e5e:	04544703          	lbu	a4,69(s0)
 8003e62:	00168793          	addi	a5,a3,1
 8003e66:	97a2                	add	a5,a5,s0
 8003e68:	0689                	addi	a3,a3,2
 8003e6a:	04e781a3          	sb	a4,67(a5)
 8003e6e:	bf9d                	j	8003de4 <_printf_common+0x6c>
 8003e70:	4685                	li	a3,1
 8003e72:	8622                	mv	a2,s0
 8003e74:	85d6                	mv	a1,s5
 8003e76:	854e                	mv	a0,s3
 8003e78:	9a02                	jalr	s4
 8003e7a:	fb650ee3          	beq	a0,s6,8003e36 <_printf_common+0xbe>
 8003e7e:	0905                	addi	s2,s2,1
 8003e80:	b745                	j	8003e20 <_printf_common+0xa8>

08003e82 <_printf_i>:
_printf_i():
 8003e82:	7179                	addi	sp,sp,-48
 8003e84:	d422                	sw	s0,40(sp)
 8003e86:	d226                	sw	s1,36(sp)
 8003e88:	d04a                	sw	s2,32(sp)
 8003e8a:	ce4e                	sw	s3,28(sp)
 8003e8c:	d606                	sw	ra,44(sp)
 8003e8e:	cc52                	sw	s4,24(sp)
 8003e90:	ca56                	sw	s5,20(sp)
 8003e92:	c85a                	sw	s6,16(sp)
 8003e94:	0185c803          	lbu	a6,24(a1)
 8003e98:	07800793          	li	a5,120
 8003e9c:	84aa                	mv	s1,a0
 8003e9e:	842e                	mv	s0,a1
 8003ea0:	8932                	mv	s2,a2
 8003ea2:	89b6                	mv	s3,a3
 8003ea4:	0107ee63          	bltu	a5,a6,8003ec0 <_printf_i+0x3e>
 8003ea8:	06200793          	li	a5,98
 8003eac:	04358893          	addi	a7,a1,67
 8003eb0:	0107ed63          	bltu	a5,a6,8003eca <_printf_i+0x48>
 8003eb4:	1c080463          	beqz	a6,800407c <_printf_i+0x1fa>
 8003eb8:	05800793          	li	a5,88
 8003ebc:	12f80c63          	beq	a6,a5,8003ff4 <_printf_i+0x172>
 8003ec0:	04240a93          	addi	s5,s0,66
 8003ec4:	05040123          	sb	a6,66(s0)
 8003ec8:	a815                	j	8003efc <_printf_i+0x7a>
 8003eca:	f9d80793          	addi	a5,a6,-99
 8003ece:	0ff7f793          	zext.b	a5,a5
 8003ed2:	46d5                	li	a3,21
 8003ed4:	fef6e6e3          	bltu	a3,a5,8003ec0 <_printf_i+0x3e>
 8003ed8:	ffffe697          	auipc	a3,0xffffe
 8003edc:	80c68693          	addi	a3,a3,-2036 # 80016e4 <__sf_fake_stdout+0x5c>
 8003ee0:	20d7c7b3          	sh2add	a5,a5,a3
 8003ee4:	439c                	lw	a5,0(a5)
 8003ee6:	97b6                	add	a5,a5,a3
 8003ee8:	8782                	jr	a5
 8003eea:	431c                	lw	a5,0(a4)
 8003eec:	04258a93          	addi	s5,a1,66
 8003ef0:	00478693          	addi	a3,a5,4
 8003ef4:	439c                	lw	a5,0(a5)
 8003ef6:	c314                	sw	a3,0(a4)
 8003ef8:	04f58123          	sb	a5,66(a1)
 8003efc:	4785                	li	a5,1
 8003efe:	a255                	j	80040a2 <_printf_i+0x220>
 8003f00:	419c                	lw	a5,0(a1)
 8003f02:	430c                	lw	a1,0(a4)
 8003f04:	0807f693          	andi	a3,a5,128
 8003f08:	00458613          	addi	a2,a1,4
 8003f0c:	c28d                	beqz	a3,8003f2e <_printf_i+0xac>
 8003f0e:	419c                	lw	a5,0(a1)
 8003f10:	c310                	sw	a2,0(a4)
 8003f12:	0007d863          	bgez	a5,8003f22 <_printf_i+0xa0>
 8003f16:	02d00713          	li	a4,45
 8003f1a:	40f007b3          	neg	a5,a5
 8003f1e:	04e401a3          	sb	a4,67(s0)
 8003f22:	ffffd697          	auipc	a3,0xffffd
 8003f26:	79a68693          	addi	a3,a3,1946 # 80016bc <__sf_fake_stdout+0x34>
 8003f2a:	4829                	li	a6,10
 8003f2c:	a0a1                	j	8003f74 <_printf_i+0xf2>
 8003f2e:	0407f693          	andi	a3,a5,64
 8003f32:	419c                	lw	a5,0(a1)
 8003f34:	c310                	sw	a2,0(a4)
 8003f36:	def1                	beqz	a3,8003f12 <_printf_i+0x90>
 8003f38:	60579793          	sext.h	a5,a5
 8003f3c:	bfd9                	j	8003f12 <_printf_i+0x90>
 8003f3e:	4194                	lw	a3,0(a1)
 8003f40:	431c                	lw	a5,0(a4)
 8003f42:	0806f593          	andi	a1,a3,128
 8003f46:	00478613          	addi	a2,a5,4
 8003f4a:	c581                	beqz	a1,8003f52 <_printf_i+0xd0>
 8003f4c:	c310                	sw	a2,0(a4)
 8003f4e:	439c                	lw	a5,0(a5)
 8003f50:	a039                	j	8003f5e <_printf_i+0xdc>
 8003f52:	0406f693          	andi	a3,a3,64
 8003f56:	c310                	sw	a2,0(a4)
 8003f58:	dafd                	beqz	a3,8003f4e <_printf_i+0xcc>
 8003f5a:	0007d783          	lhu	a5,0(a5)
 8003f5e:	06f00713          	li	a4,111
 8003f62:	ffffd697          	auipc	a3,0xffffd
 8003f66:	75a68693          	addi	a3,a3,1882 # 80016bc <__sf_fake_stdout+0x34>
 8003f6a:	0ee80463          	beq	a6,a4,8004052 <_printf_i+0x1d0>
 8003f6e:	4829                	li	a6,10
 8003f70:	040401a3          	sb	zero,67(s0)
 8003f74:	4058                	lw	a4,4(s0)
 8003f76:	c418                	sw	a4,8(s0)
 8003f78:	00074563          	bltz	a4,8003f82 <_printf_i+0x100>
 8003f7c:	4010                	lw	a2,0(s0)
 8003f7e:	9a6d                	andi	a2,a2,-5
 8003f80:	c010                	sw	a2,0(s0)
 8003f82:	e399                	bnez	a5,8003f88 <_printf_i+0x106>
 8003f84:	8ac6                	mv	s5,a7
 8003f86:	cf19                	beqz	a4,8003fa4 <_printf_i+0x122>
 8003f88:	8ac6                	mv	s5,a7
 8003f8a:	0307f733          	remu	a4,a5,a6
 8003f8e:	1afd                	addi	s5,s5,-1
 8003f90:	9736                	add	a4,a4,a3
 8003f92:	00074703          	lbu	a4,0(a4)
 8003f96:	00ea8023          	sb	a4,0(s5)
 8003f9a:	873e                	mv	a4,a5
 8003f9c:	0307d7b3          	divu	a5,a5,a6
 8003fa0:	ff0775e3          	bgeu	a4,a6,8003f8a <_printf_i+0x108>
 8003fa4:	47a1                	li	a5,8
 8003fa6:	00f81e63          	bne	a6,a5,8003fc2 <_printf_i+0x140>
 8003faa:	401c                	lw	a5,0(s0)
 8003fac:	8b85                	andi	a5,a5,1
 8003fae:	cb91                	beqz	a5,8003fc2 <_printf_i+0x140>
 8003fb0:	4058                	lw	a4,4(s0)
 8003fb2:	481c                	lw	a5,16(s0)
 8003fb4:	00e7c763          	blt	a5,a4,8003fc2 <_printf_i+0x140>
 8003fb8:	03000793          	li	a5,48
 8003fbc:	fefa8fa3          	sb	a5,-1(s5)
 8003fc0:	1afd                	addi	s5,s5,-1
 8003fc2:	415888b3          	sub	a7,a7,s5
 8003fc6:	01142823          	sw	a7,16(s0)
 8003fca:	874e                	mv	a4,s3
 8003fcc:	86ca                	mv	a3,s2
 8003fce:	0070                	addi	a2,sp,12
 8003fd0:	85a2                	mv	a1,s0
 8003fd2:	8526                	mv	a0,s1
 8003fd4:	da5ff0ef          	jal	ra,8003d78 <_printf_common>
 8003fd8:	5a7d                	li	s4,-1
 8003fda:	0d451863          	bne	a0,s4,80040aa <_printf_i+0x228>
 8003fde:	557d                	li	a0,-1
 8003fe0:	50b2                	lw	ra,44(sp)
 8003fe2:	5422                	lw	s0,40(sp)
 8003fe4:	5492                	lw	s1,36(sp)
 8003fe6:	5902                	lw	s2,32(sp)
 8003fe8:	49f2                	lw	s3,28(sp)
 8003fea:	4a62                	lw	s4,24(sp)
 8003fec:	4ad2                	lw	s5,20(sp)
 8003fee:	4b42                	lw	s6,16(sp)
 8003ff0:	6145                	addi	sp,sp,48
 8003ff2:	8082                	ret
 8003ff4:	050582a3          	sb	a6,69(a1)
 8003ff8:	ffffd697          	auipc	a3,0xffffd
 8003ffc:	6c468693          	addi	a3,a3,1732 # 80016bc <__sf_fake_stdout+0x34>
 8004000:	4010                	lw	a2,0(s0)
 8004002:	430c                	lw	a1,0(a4)
 8004004:	08067513          	andi	a0,a2,128
 8004008:	419c                	lw	a5,0(a1)
 800400a:	0591                	addi	a1,a1,4
 800400c:	cd05                	beqz	a0,8004044 <_printf_i+0x1c2>
 800400e:	c30c                	sw	a1,0(a4)
 8004010:	00167713          	andi	a4,a2,1
 8004014:	c701                	beqz	a4,800401c <_printf_i+0x19a>
 8004016:	02066613          	ori	a2,a2,32
 800401a:	c010                	sw	a2,0(s0)
 800401c:	4841                	li	a6,16
 800401e:	fba9                	bnez	a5,8003f70 <_printf_i+0xee>
 8004020:	4018                	lw	a4,0(s0)
 8004022:	fdf77713          	andi	a4,a4,-33
 8004026:	c018                	sw	a4,0(s0)
 8004028:	b7a1                	j	8003f70 <_printf_i+0xee>
 800402a:	419c                	lw	a5,0(a1)
 800402c:	0207e793          	ori	a5,a5,32
 8004030:	c19c                	sw	a5,0(a1)
 8004032:	07800793          	li	a5,120
 8004036:	04f402a3          	sb	a5,69(s0)
 800403a:	ffffd697          	auipc	a3,0xffffd
 800403e:	69668693          	addi	a3,a3,1686 # 80016d0 <__sf_fake_stdout+0x48>
 8004042:	bf7d                	j	8004000 <_printf_i+0x17e>
 8004044:	04067513          	andi	a0,a2,64
 8004048:	c30c                	sw	a1,0(a4)
 800404a:	d179                	beqz	a0,8004010 <_printf_i+0x18e>
 800404c:	0807c7b3          	zext.h	a5,a5
 8004050:	b7c1                	j	8004010 <_printf_i+0x18e>
 8004052:	4821                	li	a6,8
 8004054:	bf31                	j	8003f70 <_printf_i+0xee>
 8004056:	4194                	lw	a3,0(a1)
 8004058:	431c                	lw	a5,0(a4)
 800405a:	49d0                	lw	a2,20(a1)
 800405c:	0806f513          	andi	a0,a3,128
 8004060:	00478593          	addi	a1,a5,4
 8004064:	c509                	beqz	a0,800406e <_printf_i+0x1ec>
 8004066:	c30c                	sw	a1,0(a4)
 8004068:	439c                	lw	a5,0(a5)
 800406a:	c390                	sw	a2,0(a5)
 800406c:	a801                	j	800407c <_printf_i+0x1fa>
 800406e:	c30c                	sw	a1,0(a4)
 8004070:	0406f693          	andi	a3,a3,64
 8004074:	439c                	lw	a5,0(a5)
 8004076:	daf5                	beqz	a3,800406a <_printf_i+0x1e8>
 8004078:	00c79023          	sh	a2,0(a5)
 800407c:	00042823          	sw	zero,16(s0)
 8004080:	8ac6                	mv	s5,a7
 8004082:	b7a1                	j	8003fca <_printf_i+0x148>
 8004084:	431c                	lw	a5,0(a4)
 8004086:	41d0                	lw	a2,4(a1)
 8004088:	4581                	li	a1,0
 800408a:	00478693          	addi	a3,a5,4
 800408e:	c314                	sw	a3,0(a4)
 8004090:	0007aa83          	lw	s5,0(a5)
 8004094:	8556                	mv	a0,s5
 8004096:	2411                	jal	800429a <memchr>
 8004098:	c501                	beqz	a0,80040a0 <_printf_i+0x21e>
 800409a:	415507b3          	sub	a5,a0,s5
 800409e:	c05c                	sw	a5,4(s0)
 80040a0:	405c                	lw	a5,4(s0)
 80040a2:	c81c                	sw	a5,16(s0)
 80040a4:	040401a3          	sb	zero,67(s0)
 80040a8:	b70d                	j	8003fca <_printf_i+0x148>
 80040aa:	4814                	lw	a3,16(s0)
 80040ac:	8656                	mv	a2,s5
 80040ae:	85ca                	mv	a1,s2
 80040b0:	8526                	mv	a0,s1
 80040b2:	9982                	jalr	s3
 80040b4:	f34505e3          	beq	a0,s4,8003fde <_printf_i+0x15c>
 80040b8:	401c                	lw	a5,0(s0)
 80040ba:	8b89                	andi	a5,a5,2
 80040bc:	e785                	bnez	a5,80040e4 <_printf_i+0x262>
 80040be:	4448                	lw	a0,12(s0)
 80040c0:	47b2                	lw	a5,12(sp)
 80040c2:	0af56533          	max	a0,a0,a5
 80040c6:	bf29                	j	8003fe0 <_printf_i+0x15e>
 80040c8:	4685                	li	a3,1
 80040ca:	8656                	mv	a2,s5
 80040cc:	85ca                	mv	a1,s2
 80040ce:	8526                	mv	a0,s1
 80040d0:	9982                	jalr	s3
 80040d2:	f16506e3          	beq	a0,s6,8003fde <_printf_i+0x15c>
 80040d6:	0a05                	addi	s4,s4,1
 80040d8:	445c                	lw	a5,12(s0)
 80040da:	4732                	lw	a4,12(sp)
 80040dc:	8f99                	sub	a5,a5,a4
 80040de:	fefa45e3          	blt	s4,a5,80040c8 <_printf_i+0x246>
 80040e2:	bff1                	j	80040be <_printf_i+0x23c>
 80040e4:	4a01                	li	s4,0
 80040e6:	01940a93          	addi	s5,s0,25
 80040ea:	5b7d                	li	s6,-1
 80040ec:	b7f5                	j	80040d8 <_printf_i+0x256>

080040ee <_sbrk_r>:
_sbrk_r():
 80040ee:	1141                	addi	sp,sp,-16
 80040f0:	c422                	sw	s0,8(sp)
 80040f2:	842a                	mv	s0,a0
 80040f4:	852e                	mv	a0,a1
 80040f6:	9e01a623          	sw	zero,-1556(gp) # 2000054c <errno>
 80040fa:	c606                	sw	ra,12(sp)
 80040fc:	22e5                	jal	80042e4 <_sbrk>
 80040fe:	57fd                	li	a5,-1
 8004100:	00f51663          	bne	a0,a5,800410c <_sbrk_r+0x1e>
 8004104:	9ec1a783          	lw	a5,-1556(gp) # 2000054c <errno>
 8004108:	c391                	beqz	a5,800410c <_sbrk_r+0x1e>
 800410a:	c01c                	sw	a5,0(s0)
 800410c:	40b2                	lw	ra,12(sp)
 800410e:	4422                	lw	s0,8(sp)
 8004110:	0141                	addi	sp,sp,16
 8004112:	8082                	ret

08004114 <__sread>:
__sread():
 8004114:	1141                	addi	sp,sp,-16
 8004116:	c422                	sw	s0,8(sp)
 8004118:	c606                	sw	ra,12(sp)
 800411a:	842e                	mv	s0,a1
 800411c:	00e59583          	lh	a1,14(a1)
 8004120:	2a61                	jal	80042b8 <_read_r>
 8004122:	00054963          	bltz	a0,8004134 <__sread+0x20>
 8004126:	487c                	lw	a5,84(s0)
 8004128:	97aa                	add	a5,a5,a0
 800412a:	c87c                	sw	a5,84(s0)
 800412c:	40b2                	lw	ra,12(sp)
 800412e:	4422                	lw	s0,8(sp)
 8004130:	0141                	addi	sp,sp,16
 8004132:	8082                	ret
 8004134:	00c45783          	lhu	a5,12(s0)
 8004138:	48c79793          	bclri	a5,a5,0xc
 800413c:	00f41623          	sh	a5,12(s0)
 8004140:	b7f5                	j	800412c <__sread+0x18>

08004142 <__swrite>:
__swrite():
 8004142:	00c5d783          	lhu	a5,12(a1)
 8004146:	1101                	addi	sp,sp,-32
 8004148:	cc22                	sw	s0,24(sp)
 800414a:	ca26                	sw	s1,20(sp)
 800414c:	c84a                	sw	s2,16(sp)
 800414e:	c64e                	sw	s3,12(sp)
 8004150:	ce06                	sw	ra,28(sp)
 8004152:	1007f793          	andi	a5,a5,256
 8004156:	84aa                	mv	s1,a0
 8004158:	842e                	mv	s0,a1
 800415a:	8932                	mv	s2,a2
 800415c:	89b6                	mv	s3,a3
 800415e:	c791                	beqz	a5,800416a <__swrite+0x28>
 8004160:	4689                	li	a3,2
 8004162:	4601                	li	a2,0
 8004164:	00e59583          	lh	a1,14(a1)
 8004168:	2219                	jal	800426e <_lseek_r>
 800416a:	00c45783          	lhu	a5,12(s0)
 800416e:	00e41583          	lh	a1,14(s0)
 8004172:	40f2                	lw	ra,28(sp)
 8004174:	48c79793          	bclri	a5,a5,0xc
 8004178:	00f41623          	sh	a5,12(s0)
 800417c:	4462                	lw	s0,24(sp)
 800417e:	86ce                	mv	a3,s3
 8004180:	864a                	mv	a2,s2
 8004182:	49b2                	lw	s3,12(sp)
 8004184:	4942                	lw	s2,16(sp)
 8004186:	8526                	mv	a0,s1
 8004188:	44d2                	lw	s1,20(sp)
 800418a:	6105                	addi	sp,sp,32
 800418c:	a835                	j	80041c8 <_write_r>

0800418e <__sseek>:
__sseek():
 800418e:	1141                	addi	sp,sp,-16
 8004190:	c422                	sw	s0,8(sp)
 8004192:	c606                	sw	ra,12(sp)
 8004194:	842e                	mv	s0,a1
 8004196:	00e59583          	lh	a1,14(a1)
 800419a:	28d1                	jal	800426e <_lseek_r>
 800419c:	577d                	li	a4,-1
 800419e:	00c45783          	lhu	a5,12(s0)
 80041a2:	00e51a63          	bne	a0,a4,80041b6 <__sseek+0x28>
 80041a6:	48c79793          	bclri	a5,a5,0xc
 80041aa:	00f41623          	sh	a5,12(s0)
 80041ae:	40b2                	lw	ra,12(sp)
 80041b0:	4422                	lw	s0,8(sp)
 80041b2:	0141                	addi	sp,sp,16
 80041b4:	8082                	ret
 80041b6:	28c79793          	bseti	a5,a5,0xc
 80041ba:	c868                	sw	a0,84(s0)
 80041bc:	00f41623          	sh	a5,12(s0)
 80041c0:	b7fd                	j	80041ae <__sseek+0x20>

080041c2 <__sclose>:
__sclose():
 80041c2:	00e59583          	lh	a1,14(a1)
 80041c6:	a03d                	j	80041f4 <_close_r>

080041c8 <_write_r>:
_write_r():
 80041c8:	1141                	addi	sp,sp,-16
 80041ca:	c422                	sw	s0,8(sp)
 80041cc:	842a                	mv	s0,a0
 80041ce:	852e                	mv	a0,a1
 80041d0:	85b2                	mv	a1,a2
 80041d2:	8636                	mv	a2,a3
 80041d4:	9e01a623          	sw	zero,-1556(gp) # 2000054c <errno>
 80041d8:	c606                	sw	ra,12(sp)
 80041da:	abffe0ef          	jal	ra,8002c98 <_write>
 80041de:	57fd                	li	a5,-1
 80041e0:	00f51663          	bne	a0,a5,80041ec <_write_r+0x24>
 80041e4:	9ec1a783          	lw	a5,-1556(gp) # 2000054c <errno>
 80041e8:	c391                	beqz	a5,80041ec <_write_r+0x24>
 80041ea:	c01c                	sw	a5,0(s0)
 80041ec:	40b2                	lw	ra,12(sp)
 80041ee:	4422                	lw	s0,8(sp)
 80041f0:	0141                	addi	sp,sp,16
 80041f2:	8082                	ret

080041f4 <_close_r>:
_close_r():
 80041f4:	1141                	addi	sp,sp,-16
 80041f6:	c422                	sw	s0,8(sp)
 80041f8:	842a                	mv	s0,a0
 80041fa:	852e                	mv	a0,a1
 80041fc:	9e01a623          	sw	zero,-1556(gp) # 2000054c <errno>
 8004200:	c606                	sw	ra,12(sp)
 8004202:	951fe0ef          	jal	ra,8002b52 <_close>
 8004206:	57fd                	li	a5,-1
 8004208:	00f51663          	bne	a0,a5,8004214 <_close_r+0x20>
 800420c:	9ec1a783          	lw	a5,-1556(gp) # 2000054c <errno>
 8004210:	c391                	beqz	a5,8004214 <_close_r+0x20>
 8004212:	c01c                	sw	a5,0(s0)
 8004214:	40b2                	lw	ra,12(sp)
 8004216:	4422                	lw	s0,8(sp)
 8004218:	0141                	addi	sp,sp,16
 800421a:	8082                	ret

0800421c <_fstat_r>:
_fstat_r():
 800421c:	1141                	addi	sp,sp,-16
 800421e:	c422                	sw	s0,8(sp)
 8004220:	842a                	mv	s0,a0
 8004222:	852e                	mv	a0,a1
 8004224:	85b2                	mv	a1,a2
 8004226:	9e01a623          	sw	zero,-1556(gp) # 2000054c <errno>
 800422a:	c606                	sw	ra,12(sp)
 800422c:	92bfe0ef          	jal	ra,8002b56 <_fstat>
 8004230:	57fd                	li	a5,-1
 8004232:	00f51663          	bne	a0,a5,800423e <_fstat_r+0x22>
 8004236:	9ec1a783          	lw	a5,-1556(gp) # 2000054c <errno>
 800423a:	c391                	beqz	a5,800423e <_fstat_r+0x22>
 800423c:	c01c                	sw	a5,0(s0)
 800423e:	40b2                	lw	ra,12(sp)
 8004240:	4422                	lw	s0,8(sp)
 8004242:	0141                	addi	sp,sp,16
 8004244:	8082                	ret

08004246 <_isatty_r>:
_isatty_r():
 8004246:	1141                	addi	sp,sp,-16
 8004248:	c422                	sw	s0,8(sp)
 800424a:	842a                	mv	s0,a0
 800424c:	852e                	mv	a0,a1
 800424e:	9e01a623          	sw	zero,-1556(gp) # 2000054c <errno>
 8004252:	c606                	sw	ra,12(sp)
 8004254:	907fe0ef          	jal	ra,8002b5a <_isatty>
 8004258:	57fd                	li	a5,-1
 800425a:	00f51663          	bne	a0,a5,8004266 <_isatty_r+0x20>
 800425e:	9ec1a783          	lw	a5,-1556(gp) # 2000054c <errno>
 8004262:	c391                	beqz	a5,8004266 <_isatty_r+0x20>
 8004264:	c01c                	sw	a5,0(s0)
 8004266:	40b2                	lw	ra,12(sp)
 8004268:	4422                	lw	s0,8(sp)
 800426a:	0141                	addi	sp,sp,16
 800426c:	8082                	ret

0800426e <_lseek_r>:
_lseek_r():
 800426e:	1141                	addi	sp,sp,-16
 8004270:	c422                	sw	s0,8(sp)
 8004272:	842a                	mv	s0,a0
 8004274:	852e                	mv	a0,a1
 8004276:	85b2                	mv	a1,a2
 8004278:	8636                	mv	a2,a3
 800427a:	9e01a623          	sw	zero,-1556(gp) # 2000054c <errno>
 800427e:	c606                	sw	ra,12(sp)
 8004280:	8dffe0ef          	jal	ra,8002b5e <_lseek>
 8004284:	57fd                	li	a5,-1
 8004286:	00f51663          	bne	a0,a5,8004292 <_lseek_r+0x24>
 800428a:	9ec1a783          	lw	a5,-1556(gp) # 2000054c <errno>
 800428e:	c391                	beqz	a5,8004292 <_lseek_r+0x24>
 8004290:	c01c                	sw	a5,0(s0)
 8004292:	40b2                	lw	ra,12(sp)
 8004294:	4422                	lw	s0,8(sp)
 8004296:	0141                	addi	sp,sp,16
 8004298:	8082                	ret

0800429a <memchr>:
memchr():
 800429a:	0ff5f593          	zext.b	a1,a1
 800429e:	962a                	add	a2,a2,a0
 80042a0:	00c51463          	bne	a0,a2,80042a8 <memchr+0xe>
 80042a4:	4501                	li	a0,0
 80042a6:	8082                	ret
 80042a8:	00054783          	lbu	a5,0(a0)
 80042ac:	feb78de3          	beq	a5,a1,80042a6 <memchr+0xc>
 80042b0:	0505                	addi	a0,a0,1
 80042b2:	b7fd                	j	80042a0 <memchr+0x6>

080042b4 <__malloc_lock>:
__malloc_lock():
 80042b4:	8082                	ret

080042b6 <__malloc_unlock>:
__malloc_unlock():
 80042b6:	8082                	ret

080042b8 <_read_r>:
_read_r():
 80042b8:	1141                	addi	sp,sp,-16
 80042ba:	c422                	sw	s0,8(sp)
 80042bc:	842a                	mv	s0,a0
 80042be:	852e                	mv	a0,a1
 80042c0:	85b2                	mv	a1,a2
 80042c2:	8636                	mv	a2,a3
 80042c4:	9e01a623          	sw	zero,-1556(gp) # 2000054c <errno>
 80042c8:	c606                	sw	ra,12(sp)
 80042ca:	899fe0ef          	jal	ra,8002b62 <_read>
 80042ce:	57fd                	li	a5,-1
 80042d0:	00f51663          	bne	a0,a5,80042dc <_read_r+0x24>
 80042d4:	9ec1a783          	lw	a5,-1556(gp) # 2000054c <errno>
 80042d8:	c391                	beqz	a5,80042dc <_read_r+0x24>
 80042da:	c01c                	sw	a5,0(s0)
 80042dc:	40b2                	lw	ra,12(sp)
 80042de:	4422                	lw	s0,8(sp)
 80042e0:	0141                	addi	sp,sp,16
 80042e2:	8082                	ret

080042e4 <_sbrk>:
_sbrk():
 80042e4:	9f018713          	addi	a4,gp,-1552 # 20000550 <heap_end.0>
 80042e8:	431c                	lw	a5,0(a4)
 80042ea:	c789                	beqz	a5,80042f4 <_sbrk+0x10>
 80042ec:	953e                	add	a0,a0,a5
 80042ee:	c308                	sw	a0,0(a4)
 80042f0:	853e                	mv	a0,a5
 80042f2:	8082                	ret
 80042f4:	17fff797          	auipc	a5,0x17fff
 80042f8:	32478793          	addi	a5,a5,804 # 20003618 <_end>
 80042fc:	953e                	add	a0,a0,a5
 80042fe:	c308                	sw	a0,0(a4)
 8004300:	853e                	mv	a0,a5
 8004302:	8082                	ret

08004304 <_global_impure_ptr>:
 8004304:	0300 2000                                   ... 
